

Microchip MPLAB XC8 Assembler V2.45 build 20230818022343 
                                                                                               Tue Nov 07 21:59:15 2023

Microchip MPLAB XC8 C Compiler v2.45 (Free license) build 20230818022343 Og1 
     1                           	processor	16F877A
     2                           	pagewidth 120
     3                           	opt	flic
     4                           	psect	idataCOMMON,global,class=CODE,delta=2,noexec
     5                           	psect	idataBANK0,global,class=CODE,delta=2,noexec
     6                           	psect	strings,global,class=STRING,delta=2,noexec
     7                           	psect	cinit,global,class=CODE,merge=1,delta=2
     8                           	psect	bssCOMMON,global,class=COMMON,space=1,delta=1,noexec
     9                           	psect	dataCOMMON,global,class=COMMON,space=1,delta=1,noexec
    10                           	psect	bssBANK0,global,class=BANK0,space=1,delta=1,noexec
    11                           	psect	dataBANK0,global,class=BANK0,space=1,delta=1,noexec
    12                           	psect	cstackCOMMON,global,class=COMMON,space=1,delta=1,noexec
    13                           	psect	cstackBANK0,global,class=BANK0,space=1,delta=1,noexec
    14                           	psect	maintext,global,class=CODE,split=1,delta=2
    15                           	psect	text1,local,class=CODE,merge=1,delta=2
    16                           	psect	text2,local,class=CODE,merge=1,delta=2
    17                           	psect	text3,local,class=CODE,merge=1,delta=2
    18                           	psect	text4,local,class=CODE,merge=1,delta=2,group=1
    19                           	psect	text5,local,class=CODE,merge=1,delta=2
    20                           	psect	text6,local,class=CODE,merge=1,delta=2
    21                           	psect	text7,local,class=CODE,merge=1,delta=2
    22                           	psect	text8,local,class=CODE,merge=1,delta=2
    23                           	psect	text9,local,class=CODE,merge=1,delta=2
    24                           	psect	text10,local,class=CODE,merge=1,delta=2
    25                           	psect	text11,local,class=CODE,merge=1,delta=2
    26                           	psect	text12,local,class=CODE,merge=1,delta=2
    27                           	psect	text13,local,class=CODE,merge=1,delta=2
    28                           	psect	text14,local,class=CODE,merge=1,delta=2
    29                           	psect	text15,local,class=CODE,merge=1,delta=2
    30                           	psect	text16,local,class=CODE,merge=1,delta=2,group=1
    31                           	psect	text17,local,class=CODE,merge=1,delta=2,group=1
    32                           	psect	text18,local,class=CODE,merge=1,delta=2
    33                           	psect	intentry,global,class=CODE,delta=2
    34                           	psect	config,global,abs,ovrld,class=CONFIG,space=4,delta=2,noexec
    35                           	dabs	1,0x7E,2
    36     0000                     
    37                           ; Generated 22/03/2023 GMT
    38                           ; 
    39                           ; Copyright © 2023, Microchip Technology Inc. and its subsidiaries ("Microchip")
    40                           ; All rights reserved.
    41                           ; 
    42                           ; This software is developed by Microchip Technology Inc. and its subsidiaries ("Microch
      +                          ip").
    43                           ; 
    44                           ; Redistribution and use in source and binary forms, with or without modification, are
    45                           ; permitted provided that the following conditions are met:
    46                           ; 
    47                           ;     1. Redistributions of source code must retain the above copyright notice, this lis
      +                          t of
    48                           ;        conditions and the following disclaimer.
    49                           ; 
    50                           ;     2. Redistributions in binary form must reproduce the above copyright notice, this 
      +                          list
    51                           ;        of conditions and the following disclaimer in the documentation and/or other
    52                           ;        materials provided with the distribution. Publication is not required when
    53                           ;        this file is used in an embedded application.
    54                           ; 
    55                           ;     3. Microchip's name may not be used to endorse or promote products derived from th
      +                          is
    56                           ;        software without specific prior written permission.
    57                           ; 
    58                           ; THIS SOFTWARE IS PROVIDED BY MICROCHIP "AS IS" AND ANY EXPRESS OR IMPLIED WARRANTIES,
    59                           ; INCLUDING, BUT NOT LIMITED TO, THE IMPLIED WARRANTIES OF MERCHANTABILITY AND FITNESS F
      +                          OR
    60                           ; PURPOSE ARE DISCLAIMED.  IN NO EVENT SHALL MICROCHIP BE LIABLE FOR ANY DIRECT, INDIREC
      +                          T,
    61                           ; INCIDENTAL, SPECIAL, EXEMPLARY, OR CONSEQUENTIAL DAMAGES (INCLUDING BUT NOT LIMITED TO
    62                           ; PROCUREMENT OF SUBSTITUTE GOODS OR SERVICES; LOSS OF USE, DATA OR PROFITS; OR BUSINESS
    63                           ; INTERRUPTION) HOWSOEVER CAUSED AND ON ANY THEORY OF LIABILITY, WHETHER IN CONTRACT, ST
      +                          RICT
    64                           ; LIABILITY, OR TORT (INCLUDING NEGLIGENCE OR OTHERWISE) ARISING IN ANY WAY OUT OF THE U
      +                          SE OF
    65                           ; THIS SOFTWARE, EVEN IF ADVISED OF THE POSSIBILITY OF SUCH DAMAGE.
    66                           ; 
    67                           ; 
    68                           ; Code-generator required, PIC16F877A Definitions
    69                           ; 
    70                           ; SFR Addresses
    71     0000                     	;# 
    72     0001                     	;# 
    73     0002                     	;# 
    74     0003                     	;# 
    75     0004                     	;# 
    76     0005                     	;# 
    77     0006                     	;# 
    78     0007                     	;# 
    79     0008                     	;# 
    80     0009                     	;# 
    81     000A                     	;# 
    82     000B                     	;# 
    83     000C                     	;# 
    84     000D                     	;# 
    85     000E                     	;# 
    86     000E                     	;# 
    87     000F                     	;# 
    88     0010                     	;# 
    89     0011                     	;# 
    90     0012                     	;# 
    91     0013                     	;# 
    92     0014                     	;# 
    93     0015                     	;# 
    94     0015                     	;# 
    95     0016                     	;# 
    96     0017                     	;# 
    97     0018                     	;# 
    98     0019                     	;# 
    99     001A                     	;# 
   100     001B                     	;# 
   101     001B                     	;# 
   102     001C                     	;# 
   103     001D                     	;# 
   104     001E                     	;# 
   105     001F                     	;# 
   106     0081                     	;# 
   107     0085                     	;# 
   108     0086                     	;# 
   109     0087                     	;# 
   110     0088                     	;# 
   111     0089                     	;# 
   112     008C                     	;# 
   113     008D                     	;# 
   114     008E                     	;# 
   115     0091                     	;# 
   116     0092                     	;# 
   117     0093                     	;# 
   118     0094                     	;# 
   119     0098                     	;# 
   120     0099                     	;# 
   121     009C                     	;# 
   122     009D                     	;# 
   123     009E                     	;# 
   124     009F                     	;# 
   125     010C                     	;# 
   126     010D                     	;# 
   127     010E                     	;# 
   128     010F                     	;# 
   129     018C                     	;# 
   130     018D                     	;# 
   131     0000                     	;# 
   132     0001                     	;# 
   133     0002                     	;# 
   134     0003                     	;# 
   135     0004                     	;# 
   136     0005                     	;# 
   137     0006                     	;# 
   138     0007                     	;# 
   139     0008                     	;# 
   140     0009                     	;# 
   141     000A                     	;# 
   142     000B                     	;# 
   143     000C                     	;# 
   144     000D                     	;# 
   145     000E                     	;# 
   146     000E                     	;# 
   147     000F                     	;# 
   148     0010                     	;# 
   149     0011                     	;# 
   150     0012                     	;# 
   151     0013                     	;# 
   152     0014                     	;# 
   153     0015                     	;# 
   154     0015                     	;# 
   155     0016                     	;# 
   156     0017                     	;# 
   157     0018                     	;# 
   158     0019                     	;# 
   159     001A                     	;# 
   160     001B                     	;# 
   161     001B                     	;# 
   162     001C                     	;# 
   163     001D                     	;# 
   164     001E                     	;# 
   165     001F                     	;# 
   166     0081                     	;# 
   167     0085                     	;# 
   168     0086                     	;# 
   169     0087                     	;# 
   170     0088                     	;# 
   171     0089                     	;# 
   172     008C                     	;# 
   173     008D                     	;# 
   174     008E                     	;# 
   175     0091                     	;# 
   176     0092                     	;# 
   177     0093                     	;# 
   178     0094                     	;# 
   179     0098                     	;# 
   180     0099                     	;# 
   181     009C                     	;# 
   182     009D                     	;# 
   183     009E                     	;# 
   184     009F                     	;# 
   185     010C                     	;# 
   186     010D                     	;# 
   187     010E                     	;# 
   188     010F                     	;# 
   189     018C                     	;# 
   190     018D                     	;# 
   191     0000                     	;# 
   192     0001                     	;# 
   193     0002                     	;# 
   194     0003                     	;# 
   195     0004                     	;# 
   196     0005                     	;# 
   197     0006                     	;# 
   198     0007                     	;# 
   199     0008                     	;# 
   200     0009                     	;# 
   201     000A                     	;# 
   202     000B                     	;# 
   203     000C                     	;# 
   204     000D                     	;# 
   205     000E                     	;# 
   206     000E                     	;# 
   207     000F                     	;# 
   208     0010                     	;# 
   209     0011                     	;# 
   210     0012                     	;# 
   211     0013                     	;# 
   212     0014                     	;# 
   213     0015                     	;# 
   214     0015                     	;# 
   215     0016                     	;# 
   216     0017                     	;# 
   217     0018                     	;# 
   218     0019                     	;# 
   219     001A                     	;# 
   220     001B                     	;# 
   221     001B                     	;# 
   222     001C                     	;# 
   223     001D                     	;# 
   224     001E                     	;# 
   225     001F                     	;# 
   226     0081                     	;# 
   227     0085                     	;# 
   228     0086                     	;# 
   229     0087                     	;# 
   230     0088                     	;# 
   231     0089                     	;# 
   232     008C                     	;# 
   233     008D                     	;# 
   234     008E                     	;# 
   235     0091                     	;# 
   236     0092                     	;# 
   237     0093                     	;# 
   238     0094                     	;# 
   239     0098                     	;# 
   240     0099                     	;# 
   241     009C                     	;# 
   242     009D                     	;# 
   243     009E                     	;# 
   244     009F                     	;# 
   245     010C                     	;# 
   246     010D                     	;# 
   247     010E                     	;# 
   248     010F                     	;# 
   249     018C                     	;# 
   250     018D                     	;# 
   251     0000                     	;# 
   252     0001                     	;# 
   253     0002                     	;# 
   254     0003                     	;# 
   255     0004                     	;# 
   256     0005                     	;# 
   257     0006                     	;# 
   258     0007                     	;# 
   259     0008                     	;# 
   260     0009                     	;# 
   261     000A                     	;# 
   262     000B                     	;# 
   263     000C                     	;# 
   264     000D                     	;# 
   265     000E                     	;# 
   266     000E                     	;# 
   267     000F                     	;# 
   268     0010                     	;# 
   269     0011                     	;# 
   270     0012                     	;# 
   271     0013                     	;# 
   272     0014                     	;# 
   273     0015                     	;# 
   274     0015                     	;# 
   275     0016                     	;# 
   276     0017                     	;# 
   277     0018                     	;# 
   278     0019                     	;# 
   279     001A                     	;# 
   280     001B                     	;# 
   281     001B                     	;# 
   282     001C                     	;# 
   283     001D                     	;# 
   284     001E                     	;# 
   285     001F                     	;# 
   286     0081                     	;# 
   287     0085                     	;# 
   288     0086                     	;# 
   289     0087                     	;# 
   290     0088                     	;# 
   291     0089                     	;# 
   292     008C                     	;# 
   293     008D                     	;# 
   294     008E                     	;# 
   295     0091                     	;# 
   296     0092                     	;# 
   297     0093                     	;# 
   298     0094                     	;# 
   299     0098                     	;# 
   300     0099                     	;# 
   301     009C                     	;# 
   302     009D                     	;# 
   303     009E                     	;# 
   304     009F                     	;# 
   305     010C                     	;# 
   306     010D                     	;# 
   307     010E                     	;# 
   308     010F                     	;# 
   309     018C                     	;# 
   310     018D                     	;# 
   311     0000                     	;# 
   312     0001                     	;# 
   313     0002                     	;# 
   314     0003                     	;# 
   315     0004                     	;# 
   316     0005                     	;# 
   317     0006                     	;# 
   318     0007                     	;# 
   319     0008                     	;# 
   320     0009                     	;# 
   321     000A                     	;# 
   322     000B                     	;# 
   323     000C                     	;# 
   324     000D                     	;# 
   325     000E                     	;# 
   326     000E                     	;# 
   327     000F                     	;# 
   328     0010                     	;# 
   329     0011                     	;# 
   330     0012                     	;# 
   331     0013                     	;# 
   332     0014                     	;# 
   333     0015                     	;# 
   334     0015                     	;# 
   335     0016                     	;# 
   336     0017                     	;# 
   337     0018                     	;# 
   338     0019                     	;# 
   339     001A                     	;# 
   340     001B                     	;# 
   341     001B                     	;# 
   342     001C                     	;# 
   343     001D                     	;# 
   344     001E                     	;# 
   345     001F                     	;# 
   346     0081                     	;# 
   347     0085                     	;# 
   348     0086                     	;# 
   349     0087                     	;# 
   350     0088                     	;# 
   351     0089                     	;# 
   352     008C                     	;# 
   353     008D                     	;# 
   354     008E                     	;# 
   355     0091                     	;# 
   356     0092                     	;# 
   357     0093                     	;# 
   358     0094                     	;# 
   359     0098                     	;# 
   360     0099                     	;# 
   361     009C                     	;# 
   362     009D                     	;# 
   363     009E                     	;# 
   364     009F                     	;# 
   365     010C                     	;# 
   366     010D                     	;# 
   367     010E                     	;# 
   368     010F                     	;# 
   369     018C                     	;# 
   370     018D                     	;# 
   371     0000                     	;# 
   372     0001                     	;# 
   373     0002                     	;# 
   374     0003                     	;# 
   375     0004                     	;# 
   376     0005                     	;# 
   377     0006                     	;# 
   378     0007                     	;# 
   379     0008                     	;# 
   380     0009                     	;# 
   381     000A                     	;# 
   382     000B                     	;# 
   383     000C                     	;# 
   384     000D                     	;# 
   385     000E                     	;# 
   386     000E                     	;# 
   387     000F                     	;# 
   388     0010                     	;# 
   389     0011                     	;# 
   390     0012                     	;# 
   391     0013                     	;# 
   392     0014                     	;# 
   393     0015                     	;# 
   394     0015                     	;# 
   395     0016                     	;# 
   396     0017                     	;# 
   397     0018                     	;# 
   398     0019                     	;# 
   399     001A                     	;# 
   400     001B                     	;# 
   401     001B                     	;# 
   402     001C                     	;# 
   403     001D                     	;# 
   404     001E                     	;# 
   405     001F                     	;# 
   406     0081                     	;# 
   407     0085                     	;# 
   408     0086                     	;# 
   409     0087                     	;# 
   410     0088                     	;# 
   411     0089                     	;# 
   412     008C                     	;# 
   413     008D                     	;# 
   414     008E                     	;# 
   415     0091                     	;# 
   416     0092                     	;# 
   417     0093                     	;# 
   418     0094                     	;# 
   419     0098                     	;# 
   420     0099                     	;# 
   421     009C                     	;# 
   422     009D                     	;# 
   423     009E                     	;# 
   424     009F                     	;# 
   425     010C                     	;# 
   426     010D                     	;# 
   427     010E                     	;# 
   428     010F                     	;# 
   429     018C                     	;# 
   430     018D                     	;# 
   431                           
   432                           	psect	idataCOMMON
   433     06CF                     __pidataCOMMON:
   434                           
   435                           ;initializer for read_matrix_keypad@once
   436     06CF  3401               	retlw	1
   437                           
   438                           	psect	idataBANK0
   439     06CB                     __pidataBANK0:
   440                           
   441                           ;initializer for main@reset_flag
   442     06CB  3405               	retlw	5
   443     06CC  3400               	retlw	0
   444                           
   445                           ;initializer for _operation_flag
   446     06CD  3401               	retlw	1
   447     06CE  3400               	retlw	0
   448     0008                     _PORTD	set	8
   449     0061                     _TMR2IF	set	97
   450     0091                     _T2CKPS1	set	145
   451     0090                     _T2CKPS0	set	144
   452     0032                     _RB2	set	50
   453     0031                     _RB1	set	49
   454     0030                     _RB0	set	48
   455     0040                     _RD0	set	64
   456     0041                     _RD1	set	65
   457     0042                     _RD2	set	66
   458     0043                     _RD3	set	67
   459     0049                     _RE1	set	73
   460     004A                     _RE2	set	74
   461     0092                     _TMR2ON	set	146
   462     005F                     _GIE	set	95
   463     005E                     _PEIE	set	94
   464     0092                     _PR2	set	146
   465     0086                     _TRISB	set	134
   466     0088                     _TRISD	set	136
   467     0461                     _TMR2IE	set	1121
   468     040F                     _nRBPU	set	1039
   469     0449                     _TRISE1	set	1097
   470     044A                     _TRISE2	set	1098
   471                           
   472                           	psect	strings
   473     0558                     __pstrings:
   474     0558                     stringtab:
   475     0558                     __stringtab:
   476     0558                     stringcode:	
   477                           ;	String table - string pointers are 1 byte each
   478                           
   479     0558                     stringdir:
   480     0558  3005               	movlw	high stringdir
   481     0559  008A               	movwf	10
   482     055A  0804               	movf	4,w
   483     055B  0A84               	incf	4,f
   484     055C  0782               	addwf	2,f
   485     055D                     __stringbase:
   486     055D  3400               	retlw	0
   487     055E                     __end_of__stringtab:
   488     055E                     STR_4:
   489     055E  342A               	retlw	42	;'*'
   490     055F  343A               	retlw	58	;':'
   491     0560  3443               	retlw	67	;'C'
   492     0561  344C               	retlw	76	;'L'
   493     0562  3445               	retlw	69	;'E'
   494     0563  3441               	retlw	65	;'A'
   495     0564  3452               	retlw	82	;'R'
   496     0565  3420               	retlw	32	;' '
   497     0566  3420               	retlw	32	;' '
   498     0567  3423               	retlw	35	;'#'
   499     0568  343A               	retlw	58	;':'
   500     0569  3445               	retlw	69	;'E'
   501     056A  344E               	retlw	78	;'N'
   502     056B  3454               	retlw	84	;'T'
   503     056C  3445               	retlw	69	;'E'
   504     056D  3452               	retlw	82	;'R'
   505     056E  3400               	retlw	0
   506     056F                     STR_8:
   507     056F  3420               	retlw	32	;' '
   508     0570  3420               	retlw	32	;' '
   509     0571  3420               	retlw	32	;' '
   510     0572  3420               	retlw	32	;' '
   511     0573  3420               	retlw	32	;' '
   512     0574  3454               	retlw	84	;'T'
   513     0575  3455               	retlw	85	;'U'
   514     0576  3452               	retlw	82	;'R'
   515     0577  344E               	retlw	78	;'N'
   516     0578  3420               	retlw	32	;' '
   517     0579  344F               	retlw	79	;'O'
   518     057A  344E               	retlw	78	;'N'
   519     057B  3420               	retlw	32	;' '
   520     057C  3420               	retlw	32	;' '
   521     057D  3420               	retlw	32	;' '
   522     057E  3400               	retlw	0
   523     057F                     STR_2:
   524     057F  3453               	retlw	83	;'S'
   525     0580  3445               	retlw	69	;'E'
   526     0581  3454               	retlw	84	;'T'
   527     0582  3420               	retlw	32	;' '
   528     0583  3454               	retlw	84	;'T'
   529     0584  3449               	retlw	73	;'I'
   530     0585  344D               	retlw	77	;'M'
   531     0586  3445               	retlw	69	;'E'
   532     0587  3428               	retlw	40	;'('
   533     0588  3448               	retlw	72	;'H'
   534     0589  343A               	retlw	58	;':'
   535     058A  344D               	retlw	77	;'M'
   536     058B  343A               	retlw	58	;':'
   537     058C  3453               	retlw	83	;'S'
   538     058D  3429               	retlw	41	;')'
   539     058E  3400               	retlw	0
   540     058F                     STR_1:
   541     058F  3454               	retlw	84	;'T'
   542     0590  3449               	retlw	73	;'I'
   543     0591  344D               	retlw	77	;'M'
   544     0592  3445               	retlw	69	;'E'
   545     0593  343A               	retlw	58	;':'
   546     0594  3400               	retlw	0
   547     057C                     
   548                           	psect	cinit
   549     0011                     start_initialization:	
   550                           ; #config settings
   551                           
   552     0011                     __initialization:
   553                           
   554                           ; Initialize objects allocated to BANK0
   555     0011  120A  118A  26CB  120A  118A  	fcall	__pidataBANK0	;fetch initializer
   556     0016  00B2               	movwf	__pdataBANK0& (0+127)
   557     0017  120A  118A  26CC  120A  118A  	fcall	__pidataBANK0+1	;fetch initializer
   558     001C  00B3               	movwf	(__pdataBANK0+1)& (0+127)
   559     001D  120A  118A  26CD  120A  118A  	fcall	__pidataBANK0+2	;fetch initializer
   560     0022  00B4               	movwf	(__pdataBANK0+2)& (0+127)
   561     0023  120A  118A  26CE  120A  118A  	fcall	__pidataBANK0+3	;fetch initializer
   562     0028  00B5               	movwf	(__pdataBANK0+3)& (0+127)
   563                           
   564                           ; Initialize objects allocated to COMMON
   565     0029  120A  118A  26CF  120A  118A  	fcall	__pidataCOMMON	;fetch initializer
   566     002E  00FA               	movwf	__pdataCOMMON& (0+127)
   567                           
   568                           ; Clear objects allocated to BANK0
   569     002F  01AB               	clrf	__pbssBANK0& (0+127)
   570     0030  01AC               	clrf	(__pbssBANK0+1)& (0+127)
   571     0031  01AD               	clrf	(__pbssBANK0+2)& (0+127)
   572     0032  01AE               	clrf	(__pbssBANK0+3)& (0+127)
   573     0033  01AF               	clrf	(__pbssBANK0+4)& (0+127)
   574     0034  01B0               	clrf	(__pbssBANK0+5)& (0+127)
   575     0035  01B1               	clrf	(__pbssBANK0+6)& (0+127)
   576                           
   577                           ; Clear objects allocated to COMMON
   578     0036  01F8               	clrf	__pbssCOMMON& (0+127)
   579     0037  01F9               	clrf	(__pbssCOMMON+1)& (0+127)
   580     0038                     end_of_initialization:	
   581                           ;End of C runtime variable initialization code
   582                           
   583     0038                     __end_of__initialization:
   584     0038  0183               	clrf	3
   585     0039  120A  118A  2D0E   	ljmp	_main	;jump to C main() function
   586                           
   587                           	psect	bssCOMMON
   588     0078                     __pbssCOMMON:
   589     0078                     isr@count:
   590     0078                     	ds	2
   591                           
   592                           	psect	dataCOMMON
   593     007A                     __pdataCOMMON:
   594     007A                     read_matrix_keypad@once:
   595     007A                     	ds	1
   596                           
   597                           	psect	bssBANK0
   598     002B                     __pbssBANK0:
   599     002B                     set_time@wait:
   600     002B                     	ds	1
   601     002C                     set_time@blink:
   602     002C                     	ds	1
   603     002D                     set_time@blink_pos:
   604     002D                     	ds	1
   605     002E                     set_time@key_count:
   606     002E                     	ds	1
   607     002F                     _hour:
   608     002F                     	ds	1
   609     0030                     _min:
   610     0030                     	ds	1
   611     0031                     _sec:
   612     0031                     	ds	1
   613                           
   614                           	psect	dataBANK0
   615     0032                     __pdataBANK0:
   616     0032                     main@reset_flag:
   617     0032                     	ds	2
   618     0034                     _operation_flag:
   619     0034                     	ds	2
   620                           
   621                           	psect	cstackCOMMON
   622     0070                     __pcstackCOMMON:
   623     0070                     ?_init_clcd:
   624     0070                     ?_init_matrix_keypad:	
   625                           ; 1 bytes @ 0x0
   626                           
   627     0070                     ?_init_timer2:	
   628                           ; 1 bytes @ 0x0
   629                           
   630     0070                     ?_read_matrix_keypad:	
   631                           ; 1 bytes @ 0x0
   632                           
   633     0070                     ?_turn_on:	
   634                           ; 1 bytes @ 0x0
   635                           
   636     0070                     ?_clear_screen:	
   637                           ; 1 bytes @ 0x0
   638                           
   639     0070                     ?_clock_screen:	
   640                           ; 1 bytes @ 0x0
   641                           
   642     0070                     ?_init_display_controller:	
   643                           ; 1 bytes @ 0x0
   644                           
   645     0070                     ?_init_config:	
   646                           ; 1 bytes @ 0x0
   647                           
   648     0070                     ?_main:	
   649                           ; 1 bytes @ 0x0
   650                           
   651     0070                     ?_scan_keypad:	
   652                           ; 1 bytes @ 0x0
   653                           
   654     0070                     ?_isr:	
   655                           ; 1 bytes @ 0x0
   656                           
   657     0070                     ??_isr:	
   658                           ; 1 bytes @ 0x0
   659                           
   660                           
   661                           ; 1 bytes @ 0x0
   662     0070                     	ds	3
   663     0073                     ??_init_matrix_keypad:
   664     0073                     ??_init_timer2:	
   665                           ; 1 bytes @ 0x3
   666                           
   667     0073                     ?_clcd_write:	
   668                           ; 1 bytes @ 0x3
   669                           
   670     0073                     ??_scan_keypad:	
   671                           ; 1 bytes @ 0x3
   672                           
   673     0073                     ?___bmul:	
   674                           ; 1 bytes @ 0x3
   675                           
   676     0073                     ?___awdiv:	
   677                           ; 1 bytes @ 0x3
   678                           
   679     0073                     ?___awmod:	
   680                           ; 2 bytes @ 0x3
   681                           
   682     0073                     clcd_write@mode:	
   683                           ; 2 bytes @ 0x3
   684                           
   685     0073                     ___bmul@multiplicand:	
   686                           ; 1 bytes @ 0x3
   687                           
   688     0073                     scan_keypad@i:	
   689                           ; 1 bytes @ 0x3
   690                           
   691     0073                     ___awdiv@divisor:	
   692                           ; 2 bytes @ 0x3
   693                           
   694     0073                     ___awmod@divisor:	
   695                           ; 2 bytes @ 0x3
   696                           
   697                           
   698                           ; 2 bytes @ 0x3
   699     0073                     	ds	1
   700     0074                     ??_clcd_write:
   701     0074                     ??___bmul:	
   702                           ; 1 bytes @ 0x4
   703                           
   704     0074                     ___bmul@product:	
   705                           ; 1 bytes @ 0x4
   706                           
   707                           
   708                           ; 1 bytes @ 0x4
   709     0074                     	ds	1
   710     0075                     ??_read_matrix_keypad:
   711     0075                     read_matrix_keypad@mode:	
   712                           ; 1 bytes @ 0x5
   713                           
   714     0075                     ___bmul@multiplier:	
   715                           ; 1 bytes @ 0x5
   716                           
   717     0075                     ___awdiv@dividend:	
   718                           ; 1 bytes @ 0x5
   719                           
   720     0075                     ___awmod@dividend:	
   721                           ; 2 bytes @ 0x5
   722                           
   723                           
   724                           ; 2 bytes @ 0x5
   725     0075                     	ds	1
   726     0076                     clcd_write@byte:
   727     0076                     read_matrix_keypad@key:	
   728                           ; 1 bytes @ 0x6
   729                           
   730                           
   731                           ; 1 bytes @ 0x6
   732     0076                     	ds	1
   733     0077                     ??_init_clcd:
   734     0077                     ?_clcd_print:	
   735                           ; 1 bytes @ 0x7
   736                           
   737     0077                     ??_clcd_putch:	
   738                           ; 1 bytes @ 0x7
   739                           
   740     0077                     ??_init_config:	
   741                           ; 1 bytes @ 0x7
   742                           
   743     0077                     ??___awdiv:	
   744                           ; 1 bytes @ 0x7
   745                           
   746     0077                     ??___awmod:	
   747                           ; 1 bytes @ 0x7
   748                           
   749     0077                     clcd_putch@data:	
   750                           ; 1 bytes @ 0x7
   751                           
   752     0077                     clcd_print@addr:	
   753                           ; 1 bytes @ 0x7
   754                           
   755                           
   756                           ; 1 bytes @ 0x7
   757     0077                     	ds	1
   758     0078                     ??_clcd_print:
   759     0078                     ??_main:	
   760                           ; 1 bytes @ 0x8
   761                           
   762                           
   763                           	psect	cstackBANK0
   764     0020                     __pcstackBANK0:	
   765                           ; 1 bytes @ 0x8
   766                           
   767     0020                     ??_clear_screen:
   768     0020                     ??_init_display_controller:	
   769                           ; 1 bytes @ 0x0
   770                           
   771     0020                     clcd_print@str:	
   772                           ; 1 bytes @ 0x0
   773                           
   774     0020                     ___awdiv@counter:	
   775                           ; 1 bytes @ 0x0
   776                           
   777     0020                     ___awmod@counter:	
   778                           ; 1 bytes @ 0x0
   779                           
   780                           
   781                           ; 1 bytes @ 0x0
   782     0020                     	ds	1
   783     0021                     ___awdiv@sign:
   784     0021                     ___awmod@sign:	
   785                           ; 1 bytes @ 0x1
   786                           
   787                           
   788                           ; 1 bytes @ 0x1
   789     0021                     	ds	1
   790     0022                     ___awdiv@quotient:
   791                           
   792                           ; 2 bytes @ 0x2
   793     0022                     	ds	2
   794     0024                     ?_clcd_putch:
   795     0024                     clcd_putch@addr:	
   796                           ; 1 bytes @ 0x4
   797                           
   798                           
   799                           ; 1 bytes @ 0x4
   800     0024                     	ds	1
   801     0025                     ??_turn_on:
   802     0025                     ?_set_time:	
   803                           ; 1 bytes @ 0x5
   804                           
   805     0025                     ??_clock_screen:	
   806                           ; 1 bytes @ 0x5
   807                           
   808     0025                     set_time@reset_flag:	
   809                           ; 1 bytes @ 0x5
   810                           
   811                           
   812                           ; 2 bytes @ 0x5
   813     0025                     	ds	2
   814     0027                     ??_set_time:
   815                           
   816                           ; 1 bytes @ 0x7
   817     0027                     	ds	1
   818     0028                     turn_on@i:
   819                           
   820                           ; 1 bytes @ 0x8
   821     0028                     	ds	1
   822     0029                     set_time@key:
   823                           
   824                           ; 1 bytes @ 0x9
   825     0029                     	ds	1
   826     002A                     main@key:
   827                           
   828                           ; 1 bytes @ 0xA
   829     002A                     	ds	1
   830                           
   831                           	psect	maintext
   832     050E                     __pmaintext:	
   833 ;;
   834 ;;Main: autosize = 0, tempsize = 0, incstack = 0, save=0
   835 ;;
   836 ;; *************** function _main *****************
   837 ;; Defined at:
   838 ;;		line 30 in file "main.c"
   839 ;; Parameters:    Size  Location     Type
   840 ;;		None
   841 ;; Auto vars:     Size  Location     Type
   842 ;;  key             1   10[BANK0 ] unsigned char 
   843 ;; Return value:  Size  Location     Type
   844 ;;                  1    wreg      void 
   845 ;; Registers used:
   846 ;;		wreg, fsr0l, fsr0h, status,2, status,0, btemp+1, pclath, cstack
   847 ;; Tracked objects:
   848 ;;		On entry : B00/0
   849 ;;		On exit  : 0/0
   850 ;;		Unchanged: 0/0
   851 ;; Data sizes:     COMMON   BANK0   BANK1   BANK3   BANK2
   852 ;;      Params:         0       0       0       0       0
   853 ;;      Locals:         0       1       0       0       0
   854 ;;      Temps:          0       0       0       0       0
   855 ;;      Totals:         0       1       0       0       0
   856 ;;Total ram usage:        1 bytes
   857 ;; Hardware stack levels required when called: 5
   858 ;; This function calls:
   859 ;;		_clear_screen
   860 ;;		_clock_screen
   861 ;;		_init_config
   862 ;;		_read_matrix_keypad
   863 ;;		_set_time
   864 ;;		_turn_on
   865 ;; This function is called by:
   866 ;;		Startup code after reset
   867 ;; This function uses a non-reentrant model
   868 ;;
   869                           
   870     050E                     _main:	
   871                           ;psect for function _main
   872                           
   873     050E                     l2221:	
   874                           ;incstack = 0
   875                           ; Regs used in _main: [wreg-fsr0h+status,2+status,0+btemp+1+pclath+cstack]
   876                           
   877                           
   878                           ;main.c: 31:                 clear_screen();
   879     050E  120A  118A  2691  120A  118A  	fcall	_init_config
   880     0513                     l2223:
   881                           
   882                           ;main.c: 38:             case 0x04:
   883     0513  3001               	movlw	1
   884     0514  120A  118A  2634  120A  118A  	fcall	_read_matrix_keypad
   885     0519  1283               	bcf	3,5	;RP0=0, select bank0
   886     051A  1303               	bcf	3,6	;RP1=0, select bank0
   887     051B  00AA               	movwf	main@key
   888                           
   889                           ;main.c: 40:                 clock_screen();
   890     051C  2D45               	goto	l2239
   891     051D                     l2225:
   892                           
   893                           ;main.c: 43: 
   894     051D  120A  118A  2450  120A  118A  	fcall	_turn_on
   895     0522                     l2227:
   896                           
   897                           ;main.c: 44: 
   898     0522  120A  118A  267F  120A  118A  	fcall	_clear_screen
   899     0527                     l2229:
   900                           
   901                           ;main.c: 45:     }
   902     0527  3002               	movlw	2
   903     0528  1283               	bcf	3,5	;RP0=0, select bank0
   904     0529  1303               	bcf	3,6	;RP1=0, select bank0
   905     052A  00B4               	movwf	_operation_flag
   906     052B  3000               	movlw	0
   907     052C  00B5               	movwf	_operation_flag+1
   908                           
   909                           ;main.c: 46: 
   910     052D  2D13               	goto	l2223
   911     052E                     l2231:
   912                           
   913                           ;main.c: 48: 
   914     052E  0833               	movf	main@reset_flag+1,w
   915     052F  00A6               	movwf	set_time@reset_flag+1
   916     0530  0832               	movf	main@reset_flag,w
   917     0531  00A5               	movwf	set_time@reset_flag
   918     0532  082A               	movf	main@key,w
   919     0533  120A  118A  203C  120A  118A  	fcall	_set_time
   920     0538                     l2233:
   921                           
   922                           ;main.c: 49: void clock_screen (void)
   923     0538  3006               	movlw	6
   924     0539  1283               	bcf	3,5	;RP0=0, select bank0
   925     053A  1303               	bcf	3,6	;RP1=0, select bank0
   926     053B  00B2               	movwf	main@reset_flag
   927     053C  3000               	movlw	0
   928     053D  00B3               	movwf	main@reset_flag+1
   929                           
   930                           ;main.c: 50: {
   931     053E  2D13               	goto	l2223
   932     053F                     l2235:
   933                           
   934                           ;main.c: 53:     clcd_putch(hour/10 + '0',(0xC0 + 6));
   935     053F  120A  118A  22B7  120A  118A  	fcall	_clock_screen
   936                           
   937                           ;main.c: 54:     clcd_putch(hour%10 + '0',(0xC0 + 7));
   938     0544  2D13               	goto	l2223
   939     0545                     l2239:
   940                           
   941                           ; Switch on 2 bytes has been partitioned into a top level switch of size 1, and 1 sub-sw
      +                          itches
   942                           ; Switch size 1, requested type "simple"
   943                           ; Number of cases is 1, Range of values is 0 to 0
   944                           ; switch strategies available:
   945                           ; Name         Instructions Cycles
   946                           ; simple_byte            4     3 (average)
   947                           ; direct_byte           11     8 (fixed)
   948                           ; jumptable            260     6 (fixed)
   949                           ;	Chosen strategy is simple_byte
   950     0545  0835               	movf	_operation_flag+1,w
   951     0546  3A00               	xorlw	0	; case 0
   952     0547  1903               	skipnz
   953     0548  2D4A               	goto	l2285
   954     0549  2D13               	goto	l2223
   955     054A                     l2285:
   956                           
   957                           ; Switch size 1, requested type "simple"
   958                           ; Number of cases is 3, Range of values is 1 to 4
   959                           ; switch strategies available:
   960                           ; Name         Instructions Cycles
   961                           ; simple_byte           10     6 (average)
   962                           ; direct_byte           23    11 (fixed)
   963                           ; jumptable            263     9 (fixed)
   964                           ;	Chosen strategy is simple_byte
   965     054A  0834               	movf	_operation_flag,w
   966     054B  3A01               	xorlw	1	; case 1
   967     054C  1903               	skipnz
   968     054D  2D1D               	goto	l2225
   969     054E  3A03               	xorlw	3	; case 2
   970     054F  1903               	skipnz
   971     0550  2D2E               	goto	l2231
   972     0551  3A06               	xorlw	6	; case 4
   973     0552  1903               	skipnz
   974     0553  2D3F               	goto	l2235
   975     0554  2D13               	goto	l2223
   976     0555  120A  118A  280E   	ljmp	start
   977     0558                     __end_of_main:
   978                           
   979                           	psect	text1
   980     0450                     __ptext1:	
   981 ;; *************** function _turn_on *****************
   982 ;; Defined at:
   983 ;;		line 186 in file "main.c"
   984 ;; Parameters:    Size  Location     Type
   985 ;;		None
   986 ;; Auto vars:     Size  Location     Type
   987 ;;  i               1    8[BANK0 ] unsigned char 
   988 ;; Return value:  Size  Location     Type
   989 ;;                  1    wreg      void 
   990 ;; Registers used:
   991 ;;		wreg, fsr0l, fsr0h, status,2, status,0, btemp+1, pclath, cstack
   992 ;; Tracked objects:
   993 ;;		On entry : 0/0
   994 ;;		On exit  : 0/0
   995 ;;		Unchanged: 0/0
   996 ;; Data sizes:     COMMON   BANK0   BANK1   BANK3   BANK2
   997 ;;      Params:         0       0       0       0       0
   998 ;;      Locals:         0       1       0       0       0
   999 ;;      Temps:          0       3       0       0       0
  1000 ;;      Totals:         0       4       0       0       0
  1001 ;;Total ram usage:        4 bytes
  1002 ;; Hardware stack levels used: 1
  1003 ;; Hardware stack levels required when called: 3
  1004 ;; This function calls:
  1005 ;;		_clcd_print
  1006 ;;		_clcd_putch
  1007 ;; This function is called by:
  1008 ;;		_main
  1009 ;; This function uses a non-reentrant model
  1010 ;;
  1011                           
  1012     0450                     _turn_on:	
  1013                           ;psect for function _turn_on
  1014                           
  1015     0450                     l2069:	
  1016                           ;incstack = 0
  1017                           ; Regs used in _turn_on: [wreg-fsr0h+status,2+status,0+btemp+1+pclath+cstack]
  1018                           
  1019                           
  1020                           ;main.c: 188:         _delay((unsigned long)((50)*(20000000/4000.0)));;main.c: 190:     
      +                          _delay((unsigned long)((100)*(20000000/4000.0)));
  1021     0450  1283               	bcf	3,5	;RP0=0, select bank0
  1022     0451  1303               	bcf	3,6	;RP1=0, select bank0
  1023     0452  01A8               	clrf	turn_on@i
  1024     0453                     l2075:
  1025                           
  1026                           ;main.c: 191: }
  1027     0453  0828               	movf	turn_on@i,w
  1028     0454  3E80               	addlw	128
  1029     0455  00A4               	movwf	clcd_putch@addr
  1030     0456  30FF               	movlw	255
  1031     0457  120A  118A  266C  120A  118A  	fcall	_clcd_putch
  1032     045C                     l2077:
  1033     045C  3002               	movlw	2
  1034     045D  1283               	bcf	3,5	;RP0=0, select bank0
  1035     045E  1303               	bcf	3,6	;RP1=0, select bank0
  1036     045F  00A7               	movwf	??_turn_on+2
  1037     0460  3045               	movlw	69
  1038     0461  00A6               	movwf	??_turn_on+1
  1039     0462  30A9               	movlw	169
  1040     0463  00A5               	movwf	??_turn_on
  1041     0464                     u1827:
  1042     0464  0BA5               	decfsz	??_turn_on,f
  1043     0465  2C64               	goto	u1827
  1044     0466  0BA6               	decfsz	??_turn_on+1,f
  1045     0467  2C64               	goto	u1827
  1046     0468  0BA7               	decfsz	??_turn_on+2,f
  1047     0469  2C64               	goto	u1827
  1048     046A                     l2079:
  1049     046A  3001               	movlw	1
  1050     046B  00FF               	movwf	btemp+1
  1051     046C  087F               	movf	btemp+1,w
  1052     046D  1283               	bcf	3,5	;RP0=0, select bank0
  1053     046E  1303               	bcf	3,6	;RP1=0, select bank0
  1054     046F  07A8               	addwf	turn_on@i,f
  1055     0470                     l2081:
  1056     0470  3010               	movlw	16
  1057     0471  0228               	subwf	turn_on@i,w
  1058     0472  1C03               	skipc
  1059     0473  2C75               	goto	u1621
  1060     0474  2C76               	goto	u1620
  1061     0475                     u1621:
  1062     0475  2C53               	goto	l2075
  1063     0476                     u1620:
  1064     0476                     l2083:
  1065     0476  30C0               	movlw	192
  1066     0477  00F7               	movwf	clcd_print@addr
  1067     0478  3012               	movlw	(low ((STR_8-__stringbase)| (0+32768)))& (0+255)
  1068     0479  120A  118A  2606  120A  118A  	fcall	_clcd_print
  1069     047E                     l2085:
  1070     047E  1283               	bcf	3,5	;RP0=0, select bank0
  1071     047F  1303               	bcf	3,6	;RP1=0, select bank0
  1072     0480  01A8               	clrf	turn_on@i
  1073     0481                     l2091:
  1074     0481  0828               	movf	turn_on@i,w
  1075     0482  3ED0               	addlw	208
  1076     0483  00A4               	movwf	clcd_putch@addr
  1077     0484  30FF               	movlw	255
  1078     0485  120A  118A  266C  120A  118A  	fcall	_clcd_putch
  1079     048A                     l2093:
  1080     048A  3002               	movlw	2
  1081     048B  1283               	bcf	3,5	;RP0=0, select bank0
  1082     048C  1303               	bcf	3,6	;RP1=0, select bank0
  1083     048D  00A7               	movwf	??_turn_on+2
  1084     048E  3045               	movlw	69
  1085     048F  00A6               	movwf	??_turn_on+1
  1086     0490  30A9               	movlw	169
  1087     0491  00A5               	movwf	??_turn_on
  1088     0492                     u1837:
  1089     0492  0BA5               	decfsz	??_turn_on,f
  1090     0493  2C92               	goto	u1837
  1091     0494  0BA6               	decfsz	??_turn_on+1,f
  1092     0495  2C92               	goto	u1837
  1093     0496  0BA7               	decfsz	??_turn_on+2,f
  1094     0497  2C92               	goto	u1837
  1095     0498                     l2095:
  1096     0498  3001               	movlw	1
  1097     0499  00FF               	movwf	btemp+1
  1098     049A  087F               	movf	btemp+1,w
  1099     049B  1283               	bcf	3,5	;RP0=0, select bank0
  1100     049C  1303               	bcf	3,6	;RP1=0, select bank0
  1101     049D  07A8               	addwf	turn_on@i,f
  1102     049E                     l2097:
  1103     049E  3010               	movlw	16
  1104     049F  0228               	subwf	turn_on@i,w
  1105     04A0  1C03               	skipc
  1106     04A1  2CA3               	goto	u1631
  1107     04A2  2CA4               	goto	u1630
  1108     04A3                     u1631:
  1109     04A3  2C81               	goto	l2091
  1110     04A4                     u1630:
  1111     04A4                     l2099:
  1112     04A4  3003               	movlw	3
  1113     04A5  1283               	bcf	3,5	;RP0=0, select bank0
  1114     04A6  1303               	bcf	3,6	;RP1=0, select bank0
  1115     04A7  00A7               	movwf	??_turn_on+2
  1116     04A8  308A               	movlw	138
  1117     04A9  00A6               	movwf	??_turn_on+1
  1118     04AA  3055               	movlw	85
  1119     04AB  00A5               	movwf	??_turn_on
  1120     04AC                     u1847:
  1121     04AC  0BA5               	decfsz	??_turn_on,f
  1122     04AD  2CAC               	goto	u1847
  1123     04AE  0BA6               	decfsz	??_turn_on+1,f
  1124     04AF  2CAC               	goto	u1847
  1125     04B0  0BA7               	decfsz	??_turn_on+2,f
  1126     04B1  2CAC               	goto	u1847
  1127     04B2                     l103:
  1128     04B2  0008               	return
  1129     04B3                     __end_of_turn_on:
  1130                           
  1131                           	psect	text2
  1132     003C                     __ptext2:	
  1133 ;; *************** function _set_time *****************
  1134 ;; Defined at:
  1135 ;;		line 78 in file "main.c"
  1136 ;; Parameters:    Size  Location     Type
  1137 ;;  key             1    wreg     unsigned char 
  1138 ;;  reset_flag      2    5[BANK0 ] int 
  1139 ;; Auto vars:     Size  Location     Type
  1140 ;;  key             1    9[BANK0 ] unsigned char 
  1141 ;; Return value:  Size  Location     Type
  1142 ;;                  1    wreg      void 
  1143 ;; Registers used:
  1144 ;;		wreg, fsr0l, fsr0h, status,2, status,0, btemp+1, pclath, cstack
  1145 ;; Tracked objects:
  1146 ;;		On entry : 0/0
  1147 ;;		On exit  : 0/0
  1148 ;;		Unchanged: 0/0
  1149 ;; Data sizes:     COMMON   BANK0   BANK1   BANK3   BANK2
  1150 ;;      Params:         0       2       0       0       0
  1151 ;;      Locals:         0       1       0       0       0
  1152 ;;      Temps:          0       2       0       0       0
  1153 ;;      Totals:         0       5       0       0       0
  1154 ;;Total ram usage:        5 bytes
  1155 ;; Hardware stack levels used: 1
  1156 ;; Hardware stack levels required when called: 3
  1157 ;; This function calls:
  1158 ;;		___awdiv
  1159 ;;		___awmod
  1160 ;;		___bmul
  1161 ;;		_clcd_print
  1162 ;;		_clcd_putch
  1163 ;;		_clear_screen
  1164 ;; This function is called by:
  1165 ;;		_main
  1166 ;; This function uses a non-reentrant model
  1167 ;;
  1168                           
  1169     003C                     _set_time:	
  1170                           ;psect for function _set_time
  1171                           
  1172                           
  1173                           ;incstack = 0
  1174                           ; Regs used in _set_time: [wreg-fsr0h+status,2+status,0+btemp+1+pclath+cstack]
  1175                           ;set_time@key stored from wreg
  1176     003C  1283               	bcf	3,5	;RP0=0, select bank0
  1177     003D  1303               	bcf	3,6	;RP1=0, select bank0
  1178     003E  00A9               	movwf	set_time@key
  1179     003F                     l2101:
  1180                           
  1181                           ;main.c: 78:     clcd_print("SET TIME(H:M:S)",(0x80 + 0));;main.c: 79:     clcd_print("T
      +                          IME:",(0xC0 + 0));;main.c: 80:     clcd_print("*:CLEAR  #:ENTER",(0xD0 + 0));;main.c: 82
      +                          : 
  1182     003F  3005               	movlw	5
  1183     0040  0625               	xorwf	set_time@reset_flag,w
  1184     0041  0426               	iorwf	set_time@reset_flag+1,w
  1185     0042  1D03               	btfss	3,2
  1186     0043  2845               	goto	u1641
  1187     0044  2846               	goto	u1640
  1188     0045                     u1641:
  1189     0045  2866               	goto	l2113
  1190     0046                     u1640:
  1191     0046                     l2103:
  1192                           
  1193                           ;main.c: 83:     if((key!= '*') && (key != '#') && (key != 0xFF));main.c: 84:     {
  1194     0046  01AE               	clrf	set_time@key_count
  1195                           
  1196                           ;main.c: 85:         key_count++;
  1197     0047  01B1               	clrf	_sec
  1198                           
  1199                           ;main.c: 86:         if (key_count <= 2)
  1200     0048  01B0               	clrf	_min
  1201                           
  1202                           ;main.c: 87:         {
  1203     0049  01AF               	clrf	_hour
  1204                           
  1205                           ;main.c: 88:             sec = sec*10 + key;
  1206     004A  01AD               	clrf	set_time@blink_pos
  1207                           
  1208                           ;main.c: 89:             blink_pos = 0;
  1209     004B  01AC               	clrf	set_time@blink
  1210     004C                     l2105:
  1211                           
  1212                           ;main.c: 90:         }
  1213     004C  30FF               	movlw	255
  1214     004D  00A9               	movwf	set_time@key
  1215     004E                     l2107:
  1216                           
  1217                           ;main.c: 91:         else if ((key_count>2) && (key_count<=4))
  1218     004E  3080               	movlw	128
  1219     004F  00F7               	movwf	clcd_print@addr
  1220     0050  3022               	movlw	(low ((STR_2-__stringbase)| (0+32768)))& (0+255)
  1221     0051  120A  118A  2606  120A  118A  	fcall	_clcd_print
  1222     0056                     l2109:
  1223                           
  1224                           ;main.c: 92:         {
  1225     0056  30C0               	movlw	192
  1226     0057  00F7               	movwf	clcd_print@addr
  1227     0058  3032               	movlw	(low ((STR_1-__stringbase)| (0+32768)))& (0+255)
  1228     0059  120A  118A  2606  120A  118A  	fcall	_clcd_print
  1229     005E                     l2111:
  1230                           
  1231                           ;main.c: 93:             min=min*10 +key;
  1232     005E  30D0               	movlw	208
  1233     005F  00F7               	movwf	clcd_print@addr
  1234     0060  3001               	movlw	(low ((STR_4-__stringbase)| (0+32768)))& (0+255)
  1235     0061  120A  118A  2606  120A  118A  	fcall	_clcd_print
  1236     0066                     l2113:
  1237                           
  1238                           ;main.c: 96:         else if ((key_count>4) && (key_count<=6))
  1239     0066  302A               	movlw	42
  1240     0067  1283               	bcf	3,5	;RP0=0, select bank0
  1241     0068  1303               	bcf	3,6	;RP1=0, select bank0
  1242     0069  0629               	xorwf	set_time@key,w
  1243     006A  1903               	btfsc	3,2
  1244     006B  286D               	goto	u1651
  1245     006C  286E               	goto	u1650
  1246     006D                     u1651:
  1247     006D  28C8               	goto	l2143
  1248     006E                     u1650:
  1249     006E                     l2115:
  1250     006E  3023               	movlw	35
  1251     006F  0629               	xorwf	set_time@key,w
  1252     0070  1903               	btfsc	3,2
  1253     0071  2873               	goto	u1661
  1254     0072  2874               	goto	u1660
  1255     0073                     u1661:
  1256     0073  28C8               	goto	l2143
  1257     0074                     u1660:
  1258     0074                     l2117:
  1259     0074  0A29               	incf	set_time@key,w
  1260     0075  1903               	btfsc	3,2
  1261     0076  2878               	goto	u1671
  1262     0077  2879               	goto	u1670
  1263     0078                     u1671:
  1264     0078  28C8               	goto	l2143
  1265     0079                     u1670:
  1266     0079                     l2119:
  1267                           
  1268                           ;main.c: 97:         {;main.c: 98:             hour=hour*10 +key;
  1269     0079  3001               	movlw	1
  1270     007A  00FF               	movwf	btemp+1
  1271     007B  087F               	movf	btemp+1,w
  1272     007C  07AE               	addwf	set_time@key_count,f
  1273     007D                     l2121:
  1274                           
  1275                           ;main.c: 99:             blink_pos=2;
  1276     007D  3003               	movlw	3
  1277     007E  022E               	subwf	set_time@key_count,w
  1278     007F  1803               	skipnc
  1279     0080  2882               	goto	u1681
  1280     0081  2883               	goto	u1680
  1281     0082                     u1681:
  1282     0082  2891               	goto	l2127
  1283     0083                     u1680:
  1284     0083                     l2123:
  1285                           
  1286                           ;main.c: 100:         };main.c: 101: 
  1287     0083  300A               	movlw	10
  1288     0084  00F3               	movwf	___bmul@multiplicand
  1289     0085  0831               	movf	_sec,w
  1290     0086  120A  118A  2657  120A  118A  	fcall	___bmul
  1291     008B  1283               	bcf	3,5	;RP0=0, select bank0
  1292     008C  1303               	bcf	3,6	;RP1=0, select bank0
  1293     008D  0729               	addwf	set_time@key,w
  1294     008E  00B1               	movwf	_sec
  1295     008F                     l2125:
  1296                           
  1297                           ;main.c: 102:     }
  1298     008F  01AD               	clrf	set_time@blink_pos
  1299                           
  1300                           ;main.c: 103:     else if (key=='*')
  1301     0090  28FB               	goto	l2169
  1302     0091                     l2127:
  1303     0091  3003               	movlw	3
  1304     0092  022E               	subwf	set_time@key_count,w
  1305     0093  1C03               	skipc
  1306     0094  2896               	goto	u1691
  1307     0095  2897               	goto	u1690
  1308     0096                     u1691:
  1309     0096  28AC               	goto	l2135
  1310     0097                     u1690:
  1311     0097                     l2129:
  1312     0097  3005               	movlw	5
  1313     0098  022E               	subwf	set_time@key_count,w
  1314     0099  1803               	skipnc
  1315     009A  289C               	goto	u1701
  1316     009B  289D               	goto	u1700
  1317     009C                     u1701:
  1318     009C  28AC               	goto	l2135
  1319     009D                     u1700:
  1320     009D                     l2131:
  1321                           
  1322                           ;main.c: 105:         if(blink_pos==0);main.c: 106:         {
  1323     009D  300A               	movlw	10
  1324     009E  00F3               	movwf	___bmul@multiplicand
  1325     009F  0830               	movf	_min,w
  1326     00A0  120A  118A  2657  120A  118A  	fcall	___bmul
  1327     00A5  1283               	bcf	3,5	;RP0=0, select bank0
  1328     00A6  1303               	bcf	3,6	;RP1=0, select bank0
  1329     00A7  0729               	addwf	set_time@key,w
  1330     00A8  00B0               	movwf	_min
  1331     00A9                     l2133:
  1332                           
  1333                           ;main.c: 107:             sec=0;
  1334     00A9  01AD               	clrf	set_time@blink_pos
  1335     00AA  0AAD               	incf	set_time@blink_pos,f
  1336                           
  1337                           ;main.c: 108:             key_count=0;
  1338     00AB  28FB               	goto	l2169
  1339     00AC                     l2135:
  1340     00AC  3005               	movlw	5
  1341     00AD  022E               	subwf	set_time@key_count,w
  1342     00AE  1C03               	skipc
  1343     00AF  28B1               	goto	u1711
  1344     00B0  28B2               	goto	u1710
  1345     00B1                     u1711:
  1346     00B1  28C7               	goto	l73
  1347     00B2                     u1710:
  1348     00B2                     l2137:
  1349     00B2  3007               	movlw	7
  1350     00B3  022E               	subwf	set_time@key_count,w
  1351     00B4  1803               	skipnc
  1352     00B5  28B7               	goto	u1721
  1353     00B6  28B8               	goto	u1720
  1354     00B7                     u1721:
  1355     00B7  28C7               	goto	l73
  1356     00B8                     u1720:
  1357     00B8                     l2139:
  1358                           
  1359                           ;main.c: 110:         else if (blink_pos==1);main.c: 111:         {
  1360     00B8  300A               	movlw	10
  1361     00B9  00F3               	movwf	___bmul@multiplicand
  1362     00BA  082F               	movf	_hour,w
  1363     00BB  120A  118A  2657  120A  118A  	fcall	___bmul
  1364     00C0  1283               	bcf	3,5	;RP0=0, select bank0
  1365     00C1  1303               	bcf	3,6	;RP1=0, select bank0
  1366     00C2  0729               	addwf	set_time@key,w
  1367     00C3  00AF               	movwf	_hour
  1368     00C4                     l2141:
  1369                           
  1370                           ;main.c: 112:             min=0;
  1371     00C4  3002               	movlw	2
  1372     00C5  00AD               	movwf	set_time@blink_pos
  1373     00C6  28FB               	goto	l2169
  1374     00C7                     l73:
  1375                           
  1376                           ;main.c: 115:         else if (blink_pos==2)
  1377     00C7  28FB               	goto	l2169
  1378     00C8                     l2143:
  1379     00C8  302A               	movlw	42
  1380     00C9  0629               	xorwf	set_time@key,w
  1381     00CA  1D03               	btfss	3,2
  1382     00CB  28CD               	goto	u1731
  1383     00CC  28CE               	goto	u1730
  1384     00CD                     u1731:
  1385     00CD  28E9               	goto	l2161
  1386     00CE                     u1730:
  1387     00CE                     l2145:
  1388                           
  1389                           ;main.c: 117:             hour=0;;main.c: 118:             key_count=4;
  1390     00CE  082D               	movf	set_time@blink_pos,w
  1391     00CF  1D03               	btfss	3,2
  1392     00D0  28D2               	goto	u1741
  1393     00D1  28D3               	goto	u1740
  1394     00D2                     u1741:
  1395     00D2  28D6               	goto	l2149
  1396     00D3                     u1740:
  1397     00D3                     l2147:
  1398                           
  1399                           ;main.c: 119:         };main.c: 120:     }
  1400     00D3  01B1               	clrf	_sec
  1401                           
  1402                           ;main.c: 121:     else if (key=='#')
  1403     00D4  01AE               	clrf	set_time@key_count
  1404                           
  1405                           ;main.c: 122:     {
  1406     00D5  28FB               	goto	l2169
  1407     00D6                     l2149:
  1408     00D6  032D               	decf	set_time@blink_pos,w
  1409     00D7  1D03               	btfss	3,2
  1410     00D8  28DA               	goto	u1751
  1411     00D9  28DB               	goto	u1750
  1412     00DA                     u1751:
  1413     00DA  28DF               	goto	l2155
  1414     00DB                     u1750:
  1415     00DB                     l2151:
  1416                           
  1417                           ;main.c: 124:         operation_flag = 0x04;;main.c: 125:         TMR2ON =1;
  1418     00DB  01B0               	clrf	_min
  1419     00DC                     l2153:
  1420                           
  1421                           ;main.c: 126:     }
  1422     00DC  3002               	movlw	2
  1423     00DD  00AE               	movwf	set_time@key_count
  1424                           
  1425                           ;main.c: 127: 
  1426     00DE  28FB               	goto	l2169
  1427     00DF                     l2155:
  1428     00DF  3002               	movlw	2
  1429     00E0  062D               	xorwf	set_time@blink_pos,w
  1430     00E1  1D03               	btfss	3,2
  1431     00E2  28E4               	goto	u1761
  1432     00E3  28E5               	goto	u1760
  1433     00E4                     u1761:
  1434     00E4  28C7               	goto	l73
  1435     00E5                     u1760:
  1436     00E5                     l2157:
  1437                           
  1438                           ;main.c: 129:     {;main.c: 130:         wait=0;
  1439     00E5  01AF               	clrf	_hour
  1440     00E6                     l2159:
  1441                           
  1442                           ;main.c: 131:         blink =! blink;
  1443     00E6  3004               	movlw	4
  1444     00E7  00AE               	movwf	set_time@key_count
  1445     00E8  28FB               	goto	l2169
  1446     00E9                     l2161:
  1447     00E9  3023               	movlw	35
  1448     00EA  0629               	xorwf	set_time@key,w
  1449     00EB  1D03               	btfss	3,2
  1450     00EC  28EE               	goto	u1771
  1451     00ED  28EF               	goto	u1770
  1452     00EE                     u1771:
  1453     00EE  28FB               	goto	l2169
  1454     00EF                     u1770:
  1455     00EF                     l2163:
  1456                           
  1457                           ;main.c: 135:         clcd_putch(hour%10 + '0',(0xC0 + 7));;main.c: 136:         clcd_pu
      +                          tch(':',(0xC0 + 8));
  1458     00EF  120A  118A  267F  120A  118A  	fcall	_clear_screen
  1459     00F4                     l2165:
  1460                           
  1461                           ;main.c: 137: 
  1462     00F4  3004               	movlw	4
  1463     00F5  1283               	bcf	3,5	;RP0=0, select bank0
  1464     00F6  1303               	bcf	3,6	;RP1=0, select bank0
  1465     00F7  00B4               	movwf	_operation_flag
  1466     00F8  3000               	movlw	0
  1467     00F9  00B5               	movwf	_operation_flag+1
  1468     00FA                     l2167:
  1469                           
  1470                           ;main.c: 138: 
  1471     00FA  1512               	bsf	18,2	;volatile
  1472     00FB                     l2169:
  1473                           
  1474                           ;main.c: 141:         clcd_putch(':',(0xC0 + 11));
  1475     00FB  3001               	movlw	1
  1476     00FC  00FF               	movwf	btemp+1
  1477     00FD  087F               	movf	btemp+1,w
  1478     00FE  07AB               	addwf	set_time@wait,f
  1479     00FF  3010               	movlw	16
  1480     0100  062B               	xorwf	set_time@wait,w
  1481     0101  1D03               	btfss	3,2
  1482     0102  2904               	goto	u1781
  1483     0103  2905               	goto	u1780
  1484     0104                     u1781:
  1485     0104  29C2               	goto	l2191
  1486     0105                     u1780:
  1487     0105                     l2171:
  1488                           
  1489                           ;main.c: 142: ;main.c: 143:         clcd_putch(sec/10 + '0',(0xC0 + 12));
  1490     0105  01AB               	clrf	set_time@wait
  1491     0106                     l2173:
  1492                           
  1493                           ;main.c: 144:         clcd_putch(sec%10 + '0',(0xC0 + 13));
  1494     0106  082C               	movf	set_time@blink,w
  1495     0107  1903               	btfsc	3,2
  1496     0108  290A               	goto	u1791
  1497     0109  290C               	goto	u1790
  1498     010A                     u1791:
  1499     010A  3001               	movlw	1
  1500     010B  290D               	goto	u1800
  1501     010C                     u1790:
  1502     010C  3000               	movlw	0
  1503     010D                     u1800:
  1504     010D  00AC               	movwf	set_time@blink
  1505     010E                     l2175:
  1506                           
  1507                           ;main.c: 147: 
  1508     010E  30C6               	movlw	198
  1509     010F  00A4               	movwf	clcd_putch@addr
  1510     0110  300A               	movlw	10
  1511     0111  00F3               	movwf	___awdiv@divisor
  1512     0112  3000               	movlw	0
  1513     0113  00F4               	movwf	___awdiv@divisor+1
  1514     0114  082F               	movf	_hour,w
  1515     0115  00A7               	movwf	??_set_time
  1516     0116  01A8               	clrf	??_set_time+1
  1517     0117  0827               	movf	??_set_time,w
  1518     0118  00F5               	movwf	___awdiv@dividend
  1519     0119  0828               	movf	??_set_time+1,w
  1520     011A  00F6               	movwf	___awdiv@dividend+1
  1521     011B  120A  118A  23E7  120A  118A  	fcall	___awdiv
  1522     0120  0873               	movf	?___awdiv,w
  1523     0121  3E30               	addlw	48
  1524     0122  120A  118A  266C  120A  118A  	fcall	_clcd_putch
  1525     0127                     l2177:
  1526                           
  1527                           ;main.c: 148: 
  1528     0127  30C7               	movlw	199
  1529     0128  1283               	bcf	3,5	;RP0=0, select bank0
  1530     0129  1303               	bcf	3,6	;RP1=0, select bank0
  1531     012A  00A4               	movwf	clcd_putch@addr
  1532     012B  300A               	movlw	10
  1533     012C  00F3               	movwf	___awmod@divisor
  1534     012D  3000               	movlw	0
  1535     012E  00F4               	movwf	___awmod@divisor+1
  1536     012F  082F               	movf	_hour,w
  1537     0130  00A7               	movwf	??_set_time
  1538     0131  01A8               	clrf	??_set_time+1
  1539     0132  0827               	movf	??_set_time,w
  1540     0133  00F5               	movwf	___awmod@dividend
  1541     0134  0828               	movf	??_set_time+1,w
  1542     0135  00F6               	movwf	___awmod@dividend+1
  1543     0136  120A  118A  24B3  120A  118A  	fcall	___awmod
  1544     013B  0873               	movf	?___awmod,w
  1545     013C  3E30               	addlw	48
  1546     013D  120A  118A  266C  120A  118A  	fcall	_clcd_putch
  1547     0142                     l2179:
  1548                           
  1549                           ;main.c: 149:     }
  1550     0142  30C8               	movlw	200
  1551     0143  1283               	bcf	3,5	;RP0=0, select bank0
  1552     0144  1303               	bcf	3,6	;RP1=0, select bank0
  1553     0145  00A4               	movwf	clcd_putch@addr
  1554     0146  303A               	movlw	58
  1555     0147  120A  118A  266C  120A  118A  	fcall	_clcd_putch
  1556     014C                     l2181:
  1557                           
  1558                           ;main.c: 152:     {
  1559     014C  30C9               	movlw	201
  1560     014D  1283               	bcf	3,5	;RP0=0, select bank0
  1561     014E  1303               	bcf	3,6	;RP1=0, select bank0
  1562     014F  00A4               	movwf	clcd_putch@addr
  1563     0150  300A               	movlw	10
  1564     0151  00F3               	movwf	___awdiv@divisor
  1565     0152  3000               	movlw	0
  1566     0153  00F4               	movwf	___awdiv@divisor+1
  1567     0154  0830               	movf	_min,w
  1568     0155  00A7               	movwf	??_set_time
  1569     0156  01A8               	clrf	??_set_time+1
  1570     0157  0827               	movf	??_set_time,w
  1571     0158  00F5               	movwf	___awdiv@dividend
  1572     0159  0828               	movf	??_set_time+1,w
  1573     015A  00F6               	movwf	___awdiv@dividend+1
  1574     015B  120A  118A  23E7  120A  118A  	fcall	___awdiv
  1575     0160  0873               	movf	?___awdiv,w
  1576     0161  3E30               	addlw	48
  1577     0162  120A  118A  266C  120A  118A  	fcall	_clcd_putch
  1578     0167                     l2183:
  1579                           
  1580                           ;main.c: 153:         switch(blink_pos)
  1581     0167  30CA               	movlw	202
  1582     0168  1283               	bcf	3,5	;RP0=0, select bank0
  1583     0169  1303               	bcf	3,6	;RP1=0, select bank0
  1584     016A  00A4               	movwf	clcd_putch@addr
  1585     016B  300A               	movlw	10
  1586     016C  00F3               	movwf	___awmod@divisor
  1587     016D  3000               	movlw	0
  1588     016E  00F4               	movwf	___awmod@divisor+1
  1589     016F  0830               	movf	_min,w
  1590     0170  00A7               	movwf	??_set_time
  1591     0171  01A8               	clrf	??_set_time+1
  1592     0172  0827               	movf	??_set_time,w
  1593     0173  00F5               	movwf	___awmod@dividend
  1594     0174  0828               	movf	??_set_time+1,w
  1595     0175  00F6               	movwf	___awmod@dividend+1
  1596     0176  120A  118A  24B3  120A  118A  	fcall	___awmod
  1597     017B  0873               	movf	?___awmod,w
  1598     017C  3E30               	addlw	48
  1599     017D  120A  118A  266C  120A  118A  	fcall	_clcd_putch
  1600     0182                     l2185:
  1601                           
  1602                           ;main.c: 154:         {
  1603     0182  30CB               	movlw	203
  1604     0183  1283               	bcf	3,5	;RP0=0, select bank0
  1605     0184  1303               	bcf	3,6	;RP1=0, select bank0
  1606     0185  00A4               	movwf	clcd_putch@addr
  1607     0186  303A               	movlw	58
  1608     0187  120A  118A  266C  120A  118A  	fcall	_clcd_putch
  1609     018C                     l2187:
  1610                           
  1611                           ;main.c: 156:                 clcd_print("  ",(0xC0 + 6));
  1612     018C  30CC               	movlw	204
  1613     018D  1283               	bcf	3,5	;RP0=0, select bank0
  1614     018E  1303               	bcf	3,6	;RP1=0, select bank0
  1615     018F  00A4               	movwf	clcd_putch@addr
  1616     0190  300A               	movlw	10
  1617     0191  00F3               	movwf	___awdiv@divisor
  1618     0192  3000               	movlw	0
  1619     0193  00F4               	movwf	___awdiv@divisor+1
  1620     0194  0831               	movf	_sec,w
  1621     0195  00A7               	movwf	??_set_time
  1622     0196  01A8               	clrf	??_set_time+1
  1623     0197  0827               	movf	??_set_time,w
  1624     0198  00F5               	movwf	___awdiv@dividend
  1625     0199  0828               	movf	??_set_time+1,w
  1626     019A  00F6               	movwf	___awdiv@dividend+1
  1627     019B  120A  118A  23E7  120A  118A  	fcall	___awdiv
  1628     01A0  0873               	movf	?___awdiv,w
  1629     01A1  3E30               	addlw	48
  1630     01A2  120A  118A  266C  120A  118A  	fcall	_clcd_putch
  1631     01A7                     l2189:
  1632                           
  1633                           ;main.c: 157:             case 1:
  1634     01A7  30CD               	movlw	205
  1635     01A8  1283               	bcf	3,5	;RP0=0, select bank0
  1636     01A9  1303               	bcf	3,6	;RP1=0, select bank0
  1637     01AA  00A4               	movwf	clcd_putch@addr
  1638     01AB  300A               	movlw	10
  1639     01AC  00F3               	movwf	___awmod@divisor
  1640     01AD  3000               	movlw	0
  1641     01AE  00F4               	movwf	___awmod@divisor+1
  1642     01AF  0831               	movf	_sec,w
  1643     01B0  00A7               	movwf	??_set_time
  1644     01B1  01A8               	clrf	??_set_time+1
  1645     01B2  0827               	movf	??_set_time,w
  1646     01B3  00F5               	movwf	___awmod@dividend
  1647     01B4  0828               	movf	??_set_time+1,w
  1648     01B5  00F6               	movwf	___awmod@dividend+1
  1649     01B6  120A  118A  24B3  120A  118A  	fcall	___awmod
  1650     01BB  0873               	movf	?___awmod,w
  1651     01BC  3E30               	addlw	48
  1652     01BD  120A  118A  266C  120A  118A  	fcall	_clcd_putch
  1653     01C2                     l2191:
  1654                           
  1655                           ;main.c: 164: }
  1656     01C2  1283               	bcf	3,5	;RP0=0, select bank0
  1657     01C3  1303               	bcf	3,6	;RP1=0, select bank0
  1658     01C4  082C               	movf	set_time@blink,w
  1659     01C5  1903               	btfsc	3,2
  1660     01C6  29C8               	goto	u1811
  1661     01C7  29C9               	goto	u1810
  1662     01C8                     u1811:
  1663     01C8  29F6               	goto	l93
  1664     01C9                     u1810:
  1665     01C9  29E3               	goto	l2197
  1666     01CA                     l2195:
  1667                           
  1668                           ;main.c: 169:     _delay((unsigned long)((500)*(20000000/4000000.0)));
  1669     01CA  30C6               	movlw	198
  1670     01CB  00F7               	movwf	clcd_print@addr
  1671     01CC  301F               	movlw	(low (((STR_8+13)-__stringbase)| (0+32768)))& (0+255)
  1672     01CD  120A  118A  2606  120A  118A  	fcall	_clcd_print
  1673     01D2                     l90:	
  1674                           ;main.c: 170: }
  1675                           
  1676                           
  1677                           ;main.c: 171: 
  1678     01D2  30C9               	movlw	201
  1679     01D3  00F7               	movwf	clcd_print@addr
  1680     01D4  301F               	movlw	(low (((STR_8+13)-__stringbase)| (0+32768)))& (0+255)
  1681     01D5  120A  118A  2606  120A  118A  	fcall	_clcd_print
  1682     01DA                     l91:	
  1683                           ;main.c: 172: 
  1684                           
  1685                           
  1686                           ;main.c: 173: void turn_on(void)
  1687     01DA  30CC               	movlw	204
  1688     01DB  00F7               	movwf	clcd_print@addr
  1689     01DC  301F               	movlw	(low (((STR_8+13)-__stringbase)| (0+32768)))& (0+255)
  1690     01DD  120A  118A  2606  120A  118A  	fcall	_clcd_print
  1691                           
  1692                           ;main.c: 174: {
  1693     01E2  29F6               	goto	l93
  1694     01E3                     l2197:
  1695     01E3  082D               	movf	set_time@blink_pos,w
  1696     01E4  00A7               	movwf	??_set_time
  1697     01E5  01A8               	clrf	??_set_time+1
  1698                           
  1699                           ; Switch on 2 bytes has been partitioned into a top level switch of size 1, and 1 sub-sw
      +                          itches
  1700                           ; Switch size 1, requested type "simple"
  1701                           ; Number of cases is 1, Range of values is 0 to 0
  1702                           ; switch strategies available:
  1703                           ; Name         Instructions Cycles
  1704                           ; simple_byte            4     3 (average)
  1705                           ; direct_byte           11     8 (fixed)
  1706                           ; jumptable            260     6 (fixed)
  1707                           ;	Chosen strategy is simple_byte
  1708     01E6  0828               	movf	??_set_time+1,w
  1709     01E7  3A00               	xorlw	0	; case 0
  1710     01E8  1903               	skipnz
  1711     01E9  29EB               	goto	l2287
  1712     01EA  29F6               	goto	l93
  1713     01EB                     l2287:
  1714                           
  1715                           ; Switch size 1, requested type "simple"
  1716                           ; Number of cases is 3, Range of values is 0 to 2
  1717                           ; switch strategies available:
  1718                           ; Name         Instructions Cycles
  1719                           ; simple_byte           10     6 (average)
  1720                           ; direct_byte           17     8 (fixed)
  1721                           ; jumptable            260     6 (fixed)
  1722                           ;	Chosen strategy is simple_byte
  1723     01EB  0827               	movf	??_set_time,w
  1724     01EC  3A00               	xorlw	0	; case 0
  1725     01ED  1903               	skipnz
  1726     01EE  29DA               	goto	l91
  1727     01EF  3A01               	xorlw	1	; case 1
  1728     01F0  1903               	skipnz
  1729     01F1  29D2               	goto	l90
  1730     01F2  3A03               	xorlw	3	; case 2
  1731     01F3  1903               	skipnz
  1732     01F4  29CA               	goto	l2195
  1733     01F5  29F6               	goto	l93
  1734     01F6                     l93:
  1735     01F6  0008               	return
  1736     01F7                     __end_of_set_time:
  1737                           
  1738                           	psect	text3
  1739     067F                     __ptext3:	
  1740 ;; *************** function _clear_screen *****************
  1741 ;; Defined at:
  1742 ;;		line 179 in file "main.c"
  1743 ;; Parameters:    Size  Location     Type
  1744 ;;		None
  1745 ;; Auto vars:     Size  Location     Type
  1746 ;;		None
  1747 ;; Return value:  Size  Location     Type
  1748 ;;                  1    wreg      void 
  1749 ;; Registers used:
  1750 ;;		wreg, status,2, status,0, pclath, cstack
  1751 ;; Tracked objects:
  1752 ;;		On entry : 0/0
  1753 ;;		On exit  : 0/0
  1754 ;;		Unchanged: 0/0
  1755 ;; Data sizes:     COMMON   BANK0   BANK1   BANK3   BANK2
  1756 ;;      Params:         0       0       0       0       0
  1757 ;;      Locals:         0       0       0       0       0
  1758 ;;      Temps:          0       2       0       0       0
  1759 ;;      Totals:         0       2       0       0       0
  1760 ;;Total ram usage:        2 bytes
  1761 ;; Hardware stack levels used: 1
  1762 ;; Hardware stack levels required when called: 2
  1763 ;; This function calls:
  1764 ;;		_clcd_write
  1765 ;; This function is called by:
  1766 ;;		_main
  1767 ;;		_set_time
  1768 ;; This function uses a non-reentrant model
  1769 ;;
  1770                           
  1771     067F                     _clear_screen:	
  1772                           ;psect for function _clear_screen
  1773                           
  1774     067F                     l1967:	
  1775                           ;incstack = 0
  1776                           ; Regs used in _clear_screen: [wreg+status,2+status,0+pclath+cstack]
  1777                           
  1778                           
  1779                           ;main.c: 181:     }
  1780     067F  01F3               	clrf	clcd_write@mode
  1781     0680  3001               	movlw	1
  1782     0681  120A  118A  25D0  120A  118A  	fcall	_clcd_write
  1783     0686                     l1969:
  1784                           
  1785                           ;main.c: 182: 
  1786     0686  3004               	movlw	4
  1787     0687  1283               	bcf	3,5	;RP0=0, select bank0
  1788     0688  1303               	bcf	3,6	;RP1=0, select bank0
  1789     0689  00A1               	movwf	??_clear_screen+1
  1790     068A  303D               	movlw	61
  1791     068B  00A0               	movwf	??_clear_screen
  1792     068C                     u1857:
  1793     068C  0BA0               	decfsz	??_clear_screen,f
  1794     068D  2E8C               	goto	u1857
  1795     068E  0BA1               	decfsz	??_clear_screen+1,f
  1796     068F  2E8C               	goto	u1857
  1797     0690                     l96:
  1798     0690  0008               	return
  1799     0691                     __end_of_clear_screen:
  1800                           
  1801                           	psect	text4
  1802     0657                     __ptext4:	
  1803 ;; *************** function ___bmul *****************
  1804 ;; Defined at:
  1805 ;;		line 4 in file "C:\Program Files\Microchip\xc8\v2.45\pic\sources\c99\common\Umul8.c"
  1806 ;; Parameters:    Size  Location     Type
  1807 ;;  multiplier      1    wreg     unsigned char 
  1808 ;;  multiplicand    1    3[COMMON] unsigned char 
  1809 ;; Auto vars:     Size  Location     Type
  1810 ;;  multiplier      1    5[COMMON] unsigned char 
  1811 ;;  product         1    4[COMMON] unsigned char 
  1812 ;; Return value:  Size  Location     Type
  1813 ;;                  1    wreg      unsigned char 
  1814 ;; Registers used:
  1815 ;;		wreg, status,2, status,0, btemp+1
  1816 ;; Tracked objects:
  1817 ;;		On entry : 0/0
  1818 ;;		On exit  : 0/0
  1819 ;;		Unchanged: 0/0
  1820 ;; Data sizes:     COMMON   BANK0   BANK1   BANK3   BANK2
  1821 ;;      Params:         1       0       0       0       0
  1822 ;;      Locals:         2       0       0       0       0
  1823 ;;      Temps:          0       0       0       0       0
  1824 ;;      Totals:         3       0       0       0       0
  1825 ;;Total ram usage:        3 bytes
  1826 ;; Hardware stack levels used: 1
  1827 ;; Hardware stack levels required when called: 1
  1828 ;; This function calls:
  1829 ;;		Nothing
  1830 ;; This function is called by:
  1831 ;;		_set_time
  1832 ;; This function uses a non-reentrant model
  1833 ;;
  1834                           
  1835     0657                     ___bmul:	
  1836                           ;psect for function ___bmul
  1837                           
  1838                           
  1839                           ;incstack = 0
  1840                           ; Regs used in ___bmul: [wreg+status,2+status,0+btemp+1]
  1841                           ;___bmul@multiplier stored from wreg
  1842     0657  00F5               	movwf	___bmul@multiplier
  1843     0658                     l1543:
  1844     0658  01F4               	clrf	___bmul@product
  1845     0659                     l1545:
  1846     0659  1C75               	btfss	___bmul@multiplier,0
  1847     065A  2E5C               	goto	u901
  1848     065B  2E5D               	goto	u900
  1849     065C                     u901:
  1850     065C  2E61               	goto	l1549
  1851     065D                     u900:
  1852     065D                     l1547:
  1853     065D  0873               	movf	___bmul@multiplicand,w
  1854     065E  00FF               	movwf	btemp+1
  1855     065F  087F               	movf	btemp+1,w
  1856     0660  07F4               	addwf	___bmul@product,f
  1857     0661                     l1549:
  1858     0661  1003               	clrc
  1859     0662  0DF3               	rlf	___bmul@multiplicand,f
  1860     0663                     l1551:
  1861     0663  1003               	clrc
  1862     0664  0CF5               	rrf	___bmul@multiplier,f
  1863     0665                     l1553:
  1864     0665  0875               	movf	___bmul@multiplier,w
  1865     0666  1D03               	btfss	3,2
  1866     0667  2E69               	goto	u911
  1867     0668  2E6A               	goto	u910
  1868     0669                     u911:
  1869     0669  2E59               	goto	l1545
  1870     066A                     u910:
  1871     066A                     l1555:
  1872     066A  0874               	movf	___bmul@product,w
  1873     066B                     l347:
  1874     066B  0008               	return
  1875     066C                     __end_of___bmul:
  1876                           
  1877                           	psect	text5
  1878     0634                     __ptext5:	
  1879 ;; *************** function _read_matrix_keypad *****************
  1880 ;; Defined at:
  1881 ;;		line 121 in file "matrix_keypad_1.c"
  1882 ;; Parameters:    Size  Location     Type
  1883 ;;  mode            1    wreg     unsigned char 
  1884 ;; Auto vars:     Size  Location     Type
  1885 ;;  mode            1    5[COMMON] unsigned char 
  1886 ;;  key             1    6[COMMON] unsigned char 
  1887 ;; Return value:  Size  Location     Type
  1888 ;;                  1    wreg      unsigned char 
  1889 ;; Registers used:
  1890 ;;		wreg, status,2, status,0, btemp+1, pclath, cstack
  1891 ;; Tracked objects:
  1892 ;;		On entry : 0/0
  1893 ;;		On exit  : 0/0
  1894 ;;		Unchanged: 0/0
  1895 ;; Data sizes:     COMMON   BANK0   BANK1   BANK3   BANK2
  1896 ;;      Params:         0       0       0       0       0
  1897 ;;      Locals:         2       0       0       0       0
  1898 ;;      Temps:          0       0       0       0       0
  1899 ;;      Totals:         2       0       0       0       0
  1900 ;;Total ram usage:        2 bytes
  1901 ;; Hardware stack levels used: 1
  1902 ;; Hardware stack levels required when called: 2
  1903 ;; This function calls:
  1904 ;;		_scan_keypad
  1905 ;; This function is called by:
  1906 ;;		_main
  1907 ;; This function uses a non-reentrant model
  1908 ;;
  1909                           
  1910     0634                     _read_matrix_keypad:	
  1911                           ;psect for function _read_matrix_keypad
  1912                           
  1913                           
  1914                           ;incstack = 0
  1915                           ; Regs used in _read_matrix_keypad: [wreg+status,2+status,0+btemp+1+pclath+cstack]
  1916                           ;read_matrix_keypad@mode stored from wreg
  1917     0634  00F5               	movwf	read_matrix_keypad@mode
  1918     0635                     l1647:
  1919                           
  1920                           ;matrix_keypad_1.c: 122:             once=1;;matrix_keypad_1.c: 123:         };matrix_ke
      +                          ypad_1.c: 125: 
  1921     0635  120A  118A  21F7  120A  118A  	fcall	_scan_keypad
  1922     063A  00F6               	movwf	read_matrix_keypad@key
  1923     063B                     l1649:
  1924                           
  1925                           ;matrix_keypad_1.c: 127: }
  1926     063B  0875               	movf	read_matrix_keypad@mode,w
  1927     063C  1D03               	btfss	3,2
  1928     063D  2E3F               	goto	u1111
  1929     063E  2E40               	goto	u1110
  1930     063F                     u1111:
  1931     063F  2E42               	goto	l1657
  1932     0640                     u1110:
  1933     0640                     l1651:
  1934     0640  0876               	movf	read_matrix_keypad@key,w
  1935     0641  2E56               	goto	l199
  1936     0642                     l1657:
  1937     0642  0A76               	incf	read_matrix_keypad@key,w
  1938     0643  1903               	btfsc	3,2
  1939     0644  2E46               	goto	u1121
  1940     0645  2E47               	goto	u1120
  1941     0646                     u1121:
  1942     0646  2E4E               	goto	l1669
  1943     0647                     u1120:
  1944     0647                     l1659:
  1945     0647  087A               	movf	read_matrix_keypad@once,w
  1946     0648  1903               	btfsc	3,2
  1947     0649  2E4B               	goto	u1131
  1948     064A  2E4C               	goto	u1130
  1949     064B                     u1131:
  1950     064B  2E4E               	goto	l1669
  1951     064C                     u1130:
  1952     064C                     l1661:
  1953     064C  01FA               	clrf	read_matrix_keypad@once
  1954     064D  2E40               	goto	l1651
  1955     064E                     l1669:
  1956     064E  0A76               	incf	read_matrix_keypad@key,w
  1957     064F  1D03               	btfss	3,2
  1958     0650  2E52               	goto	u1141
  1959     0651  2E53               	goto	u1140
  1960     0652                     u1141:
  1961     0652  2E55               	goto	l1673
  1962     0653                     u1140:
  1963     0653                     l1671:
  1964     0653  01FA               	clrf	read_matrix_keypad@once
  1965     0654  0AFA               	incf	read_matrix_keypad@once,f
  1966     0655                     l1673:
  1967     0655  30FF               	movlw	255
  1968     0656                     l199:
  1969     0656  0008               	return
  1970     0657                     __end_of_read_matrix_keypad:
  1971                           
  1972                           	psect	text6
  1973     01F7                     __ptext6:	
  1974 ;; *************** function _scan_keypad *****************
  1975 ;; Defined at:
  1976 ;;		line 40 in file "matrix_keypad_1.c"
  1977 ;; Parameters:    Size  Location     Type
  1978 ;;		None
  1979 ;; Auto vars:     Size  Location     Type
  1980 ;;  i               2    3[COMMON] int 
  1981 ;; Return value:  Size  Location     Type
  1982 ;;                  1    wreg      unsigned char 
  1983 ;; Registers used:
  1984 ;;		wreg, btemp+1
  1985 ;; Tracked objects:
  1986 ;;		On entry : 0/0
  1987 ;;		On exit  : 0/0
  1988 ;;		Unchanged: 0/0
  1989 ;; Data sizes:     COMMON   BANK0   BANK1   BANK3   BANK2
  1990 ;;      Params:         0       0       0       0       0
  1991 ;;      Locals:         2       0       0       0       0
  1992 ;;      Temps:          0       0       0       0       0
  1993 ;;      Totals:         2       0       0       0       0
  1994 ;;Total ram usage:        2 bytes
  1995 ;; Hardware stack levels used: 1
  1996 ;; Hardware stack levels required when called: 1
  1997 ;; This function calls:
  1998 ;;		Nothing
  1999 ;; This function is called by:
  2000 ;;		_read_matrix_keypad
  2001 ;; This function uses a non-reentrant model
  2002 ;;
  2003                           
  2004     01F7                     _scan_keypad:	
  2005                           ;psect for function _scan_keypad
  2006                           
  2007     01F7                     l1433:	
  2008                           ;incstack = 0
  2009                           ; Regs used in _scan_keypad: [wreg+btemp+1]
  2010                           
  2011                           
  2012                           ;matrix_keypad_1.c: 41:     };matrix_keypad_1.c: 42: 
  2013     01F7  1283               	bcf	3,5	;RP0=0, select bank0
  2014     01F8  1303               	bcf	3,6	;RP1=0, select bank0
  2015     01F9  1188               	bcf	8,3	;volatile
  2016                           
  2017                           ;matrix_keypad_1.c: 43:     else if(RB2==0){
  2018     01FA  1508               	bsf	8,2	;volatile
  2019                           
  2020                           ;matrix_keypad_1.c: 44:         return 3;
  2021     01FB  1488               	bsf	8,1	;volatile
  2022                           
  2023                           ;matrix_keypad_1.c: 45:     }
  2024     01FC  1408               	bsf	8,0	;volatile
  2025     01FD                     l1435:
  2026                           
  2027                           ;matrix_keypad_1.c: 47:     RD3=1;
  2028     01FD  3064               	movlw	100
  2029     01FE  00F3               	movwf	scan_keypad@i
  2030     01FF  3000               	movlw	0
  2031     0200  00F4               	movwf	scan_keypad@i+1
  2032     0201                     l1441:
  2033     0201  30FF               	movlw	255
  2034     0202  07F3               	addwf	scan_keypad@i,f
  2035     0203  1803               	skipnc
  2036     0204  0AF4               	incf	scan_keypad@i+1,f
  2037     0205  30FF               	movlw	255
  2038     0206  07F4               	addwf	scan_keypad@i+1,f
  2039     0207                     l1443:
  2040     0207  0874               	movf	scan_keypad@i+1,w
  2041     0208  3A80               	xorlw	128
  2042     0209  00FF               	movwf	btemp+1
  2043     020A  3080               	movlw	128
  2044     020B  027F               	subwf	btemp+1,w
  2045     020C  1D03               	skipz
  2046     020D  2A10               	goto	u745
  2047     020E  3001               	movlw	1
  2048     020F  0273               	subwf	scan_keypad@i,w
  2049     0210                     u745:
  2050     0210  1803               	skipnc
  2051     0211  2A13               	goto	u741
  2052     0212  2A14               	goto	u740
  2053     0213                     u741:
  2054     0213  2A01               	goto	l1441
  2055     0214                     u740:
  2056     0214                     l166:
  2057                           
  2058                           ;matrix_keypad_1.c: 49:     RD1=1;
  2059     0214  1283               	bcf	3,5	;RP0=0, select bank0
  2060     0215  1303               	bcf	3,6	;RP1=0, select bank0
  2061     0216  1806               	btfsc	6,0	;volatile
  2062     0217  2A19               	goto	u751
  2063     0218  2A1A               	goto	u750
  2064     0219                     u751:
  2065     0219  2A1C               	goto	l167
  2066     021A                     u750:
  2067     021A                     l1445:
  2068                           
  2069                           ;matrix_keypad_1.c: 50:     RD0=1;
  2070     021A  3001               	movlw	1
  2071     021B  2AB6               	goto	l168
  2072     021C                     l167:	
  2073                           ;matrix_keypad_1.c: 53: 
  2074                           
  2075     021C  1886               	btfsc	6,1	;volatile
  2076     021D  2A1F               	goto	u761
  2077     021E  2A20               	goto	u760
  2078     021F                     u761:
  2079     021F  2A22               	goto	l170
  2080     0220                     u760:
  2081     0220                     l1451:
  2082                           
  2083                           ;matrix_keypad_1.c: 54:     if(RB0==0){
  2084     0220  3002               	movlw	2
  2085     0221  2AB6               	goto	l168
  2086     0222                     l170:	
  2087                           ;matrix_keypad_1.c: 57: 
  2088                           
  2089     0222  1906               	btfsc	6,2	;volatile
  2090     0223  2A25               	goto	u771
  2091     0224  2A26               	goto	u770
  2092     0225                     u771:
  2093     0225  2A28               	goto	l169
  2094     0226                     u770:
  2095     0226                     l1457:
  2096                           
  2097                           ;matrix_keypad_1.c: 58:     else if(RB1==0){
  2098     0226  3003               	movlw	3
  2099     0227  2AB6               	goto	l168
  2100     0228                     l169:
  2101                           
  2102                           ;matrix_keypad_1.c: 61: 
  2103     0228  1588               	bsf	8,3	;volatile
  2104                           
  2105                           ;matrix_keypad_1.c: 62:     else if(RB2==0){
  2106     0229  1108               	bcf	8,2	;volatile
  2107                           
  2108                           ;matrix_keypad_1.c: 63:         return 6;
  2109     022A  1488               	bsf	8,1	;volatile
  2110                           
  2111                           ;matrix_keypad_1.c: 64:     }
  2112     022B  1408               	bsf	8,0	;volatile
  2113     022C                     l1461:
  2114                           
  2115                           ;matrix_keypad_1.c: 66:     RD3=1;
  2116     022C  3064               	movlw	100
  2117     022D  00F3               	movwf	scan_keypad@i
  2118     022E  3000               	movlw	0
  2119     022F  00F4               	movwf	scan_keypad@i+1
  2120     0230                     l1467:
  2121     0230  30FF               	movlw	255
  2122     0231  07F3               	addwf	scan_keypad@i,f
  2123     0232  1803               	skipnc
  2124     0233  0AF4               	incf	scan_keypad@i+1,f
  2125     0234  30FF               	movlw	255
  2126     0235  07F4               	addwf	scan_keypad@i+1,f
  2127     0236                     l1469:
  2128     0236  0874               	movf	scan_keypad@i+1,w
  2129     0237  3A80               	xorlw	128
  2130     0238  00FF               	movwf	btemp+1
  2131     0239  3080               	movlw	128
  2132     023A  027F               	subwf	btemp+1,w
  2133     023B  1D03               	skipz
  2134     023C  2A3F               	goto	u785
  2135     023D  3001               	movlw	1
  2136     023E  0273               	subwf	scan_keypad@i,w
  2137     023F                     u785:
  2138     023F  1803               	skipnc
  2139     0240  2A42               	goto	u781
  2140     0241  2A43               	goto	u780
  2141     0242                     u781:
  2142     0242  2A30               	goto	l1467
  2143     0243                     u780:
  2144     0243                     l174:
  2145                           
  2146                           ;matrix_keypad_1.c: 68:     RD1=0;
  2147     0243  1283               	bcf	3,5	;RP0=0, select bank0
  2148     0244  1303               	bcf	3,6	;RP1=0, select bank0
  2149     0245  1806               	btfsc	6,0	;volatile
  2150     0246  2A48               	goto	u791
  2151     0247  2A49               	goto	u790
  2152     0248                     u791:
  2153     0248  2A4B               	goto	l175
  2154     0249                     u790:
  2155     0249                     l1471:
  2156                           
  2157                           ;matrix_keypad_1.c: 69:     RD0=1;
  2158     0249  3004               	movlw	4
  2159     024A  2AB6               	goto	l168
  2160     024B                     l175:	
  2161                           ;matrix_keypad_1.c: 72: 
  2162                           
  2163     024B  1886               	btfsc	6,1	;volatile
  2164     024C  2A4E               	goto	u801
  2165     024D  2A4F               	goto	u800
  2166     024E                     u801:
  2167     024E  2A51               	goto	l177
  2168     024F                     u800:
  2169     024F                     l1477:
  2170                           
  2171                           ;matrix_keypad_1.c: 73:     if(RB0==0){
  2172     024F  3005               	movlw	5
  2173     0250  2AB6               	goto	l168
  2174     0251                     l177:	
  2175                           ;matrix_keypad_1.c: 76: 
  2176                           
  2177     0251  1906               	btfsc	6,2	;volatile
  2178     0252  2A54               	goto	u811
  2179     0253  2A55               	goto	u810
  2180     0254                     u811:
  2181     0254  2A57               	goto	l176
  2182     0255                     u810:
  2183     0255                     l1483:
  2184                           
  2185                           ;matrix_keypad_1.c: 77:     else if(RB1==0){
  2186     0255  3006               	movlw	6
  2187     0256  2AB6               	goto	l168
  2188     0257                     l176:
  2189                           
  2190                           ;matrix_keypad_1.c: 80: 
  2191     0257  1588               	bsf	8,3	;volatile
  2192                           
  2193                           ;matrix_keypad_1.c: 81:     else if(RB2==0){
  2194     0258  1508               	bsf	8,2	;volatile
  2195                           
  2196                           ;matrix_keypad_1.c: 82:         return 9;
  2197     0259  1088               	bcf	8,1	;volatile
  2198                           
  2199                           ;matrix_keypad_1.c: 83:     }
  2200     025A  1408               	bsf	8,0	;volatile
  2201     025B                     l1487:
  2202                           
  2203                           ;matrix_keypad_1.c: 85:     RD3=1;
  2204     025B  3064               	movlw	100
  2205     025C  00F3               	movwf	scan_keypad@i
  2206     025D  3000               	movlw	0
  2207     025E  00F4               	movwf	scan_keypad@i+1
  2208     025F                     l1493:
  2209     025F  30FF               	movlw	255
  2210     0260  07F3               	addwf	scan_keypad@i,f
  2211     0261  1803               	skipnc
  2212     0262  0AF4               	incf	scan_keypad@i+1,f
  2213     0263  30FF               	movlw	255
  2214     0264  07F4               	addwf	scan_keypad@i+1,f
  2215     0265                     l1495:
  2216     0265  0874               	movf	scan_keypad@i+1,w
  2217     0266  3A80               	xorlw	128
  2218     0267  00FF               	movwf	btemp+1
  2219     0268  3080               	movlw	128
  2220     0269  027F               	subwf	btemp+1,w
  2221     026A  1D03               	skipz
  2222     026B  2A6E               	goto	u825
  2223     026C  3001               	movlw	1
  2224     026D  0273               	subwf	scan_keypad@i,w
  2225     026E                     u825:
  2226     026E  1803               	skipnc
  2227     026F  2A71               	goto	u821
  2228     0270  2A72               	goto	u820
  2229     0271                     u821:
  2230     0271  2A5F               	goto	l1493
  2231     0272                     u820:
  2232     0272                     l181:
  2233                           
  2234                           ;matrix_keypad_1.c: 87:     RD1=1;
  2235     0272  1283               	bcf	3,5	;RP0=0, select bank0
  2236     0273  1303               	bcf	3,6	;RP1=0, select bank0
  2237     0274  1806               	btfsc	6,0	;volatile
  2238     0275  2A77               	goto	u831
  2239     0276  2A78               	goto	u830
  2240     0277                     u831:
  2241     0277  2A7A               	goto	l182
  2242     0278                     u830:
  2243     0278                     l1497:
  2244                           
  2245                           ;matrix_keypad_1.c: 88:     RD0=0;
  2246     0278  3007               	movlw	7
  2247     0279  2AB6               	goto	l168
  2248     027A                     l182:	
  2249                           ;matrix_keypad_1.c: 91: 
  2250                           
  2251     027A  1886               	btfsc	6,1	;volatile
  2252     027B  2A7D               	goto	u841
  2253     027C  2A7E               	goto	u840
  2254     027D                     u841:
  2255     027D  2A80               	goto	l184
  2256     027E                     u840:
  2257     027E                     l1503:
  2258                           
  2259                           ;matrix_keypad_1.c: 92:     if(RB0==0){
  2260     027E  3008               	movlw	8
  2261     027F  2AB6               	goto	l168
  2262     0280                     l184:	
  2263                           ;matrix_keypad_1.c: 95: 
  2264                           
  2265     0280  1906               	btfsc	6,2	;volatile
  2266     0281  2A83               	goto	u851
  2267     0282  2A84               	goto	u850
  2268     0283                     u851:
  2269     0283  2A86               	goto	l183
  2270     0284                     u850:
  2271     0284                     l1509:
  2272                           
  2273                           ;matrix_keypad_1.c: 96:     else if(RB1==0){
  2274     0284  3009               	movlw	9
  2275     0285  2AB6               	goto	l168
  2276     0286                     l183:
  2277                           
  2278                           ;matrix_keypad_1.c: 99: 
  2279     0286  1588               	bsf	8,3	;volatile
  2280                           
  2281                           ;matrix_keypad_1.c: 100:     else if(RB2==0){
  2282     0287  1508               	bsf	8,2	;volatile
  2283                           
  2284                           ;matrix_keypad_1.c: 101:         return '#';
  2285     0288  1488               	bsf	8,1	;volatile
  2286                           
  2287                           ;matrix_keypad_1.c: 102:     }
  2288     0289  1008               	bcf	8,0	;volatile
  2289     028A                     l1513:
  2290                           
  2291                           ;matrix_keypad_1.c: 104: 
  2292     028A  3064               	movlw	100
  2293     028B  00F3               	movwf	scan_keypad@i
  2294     028C  3000               	movlw	0
  2295     028D  00F4               	movwf	scan_keypad@i+1
  2296     028E                     l1519:
  2297     028E  30FF               	movlw	255
  2298     028F  07F3               	addwf	scan_keypad@i,f
  2299     0290  1803               	skipnc
  2300     0291  0AF4               	incf	scan_keypad@i+1,f
  2301     0292  30FF               	movlw	255
  2302     0293  07F4               	addwf	scan_keypad@i+1,f
  2303     0294                     l1521:
  2304     0294  0874               	movf	scan_keypad@i+1,w
  2305     0295  3A80               	xorlw	128
  2306     0296  00FF               	movwf	btemp+1
  2307     0297  3080               	movlw	128
  2308     0298  027F               	subwf	btemp+1,w
  2309     0299  1D03               	skipz
  2310     029A  2A9D               	goto	u865
  2311     029B  3001               	movlw	1
  2312     029C  0273               	subwf	scan_keypad@i,w
  2313     029D                     u865:
  2314     029D  1803               	skipnc
  2315     029E  2AA0               	goto	u861
  2316     029F  2AA1               	goto	u860
  2317     02A0                     u861:
  2318     02A0  2A8E               	goto	l1519
  2319     02A1                     u860:
  2320     02A1                     l188:
  2321                           
  2322                           ;matrix_keypad_1.c: 106: 
  2323     02A1  1283               	bcf	3,5	;RP0=0, select bank0
  2324     02A2  1303               	bcf	3,6	;RP1=0, select bank0
  2325     02A3  1806               	btfsc	6,0	;volatile
  2326     02A4  2AA6               	goto	u871
  2327     02A5  2AA7               	goto	u870
  2328     02A6                     u871:
  2329     02A6  2AA9               	goto	l189
  2330     02A7                     u870:
  2331     02A7                     l1523:
  2332                           
  2333                           ;matrix_keypad_1.c: 107: unsigned char read_matrix_keypad (unsigned char mode){
  2334     02A7  302A               	movlw	42
  2335     02A8  2AB6               	goto	l168
  2336     02A9                     l189:	
  2337                           ;matrix_keypad_1.c: 110: 
  2338                           
  2339     02A9  1886               	btfsc	6,1	;volatile
  2340     02AA  2AAC               	goto	u881
  2341     02AB  2AAD               	goto	u880
  2342     02AC                     u881:
  2343     02AC  2AAF               	goto	l191
  2344     02AD                     u880:
  2345     02AD                     l1529:
  2346                           
  2347                           ;matrix_keypad_1.c: 111:     key= scan_keypad();
  2348     02AD  3000               	movlw	0
  2349     02AE  2AB6               	goto	l168
  2350     02AF                     l191:	
  2351                           ;matrix_keypad_1.c: 114:         return key;
  2352                           
  2353     02AF  1906               	btfsc	6,2	;volatile
  2354     02B0  2AB2               	goto	u891
  2355     02B1  2AB3               	goto	u890
  2356     02B2                     u891:
  2357     02B2  2AB5               	goto	l1539
  2358     02B3                     u890:
  2359     02B3                     l1535:
  2360                           
  2361                           ;matrix_keypad_1.c: 115:     }
  2362     02B3  3023               	movlw	35
  2363     02B4  2AB6               	goto	l168
  2364     02B5                     l1539:
  2365                           
  2366                           ;matrix_keypad_1.c: 117:         if ((key != 0xFF) && once){
  2367     02B5  30FF               	movlw	255
  2368     02B6                     l168:
  2369     02B6  0008               	return
  2370     02B7                     __end_of_scan_keypad:
  2371                           
  2372                           	psect	text7
  2373     0691                     __ptext7:	
  2374 ;; *************** function _init_config *****************
  2375 ;; Defined at:
  2376 ;;		line 16 in file "main.c"
  2377 ;; Parameters:    Size  Location     Type
  2378 ;;		None
  2379 ;; Auto vars:     Size  Location     Type
  2380 ;;		None
  2381 ;; Return value:  Size  Location     Type
  2382 ;;                  1    wreg      void 
  2383 ;; Registers used:
  2384 ;;		wreg, status,2, status,0, pclath, cstack
  2385 ;; Tracked objects:
  2386 ;;		On entry : 0/0
  2387 ;;		On exit  : 0/0
  2388 ;;		Unchanged: 0/0
  2389 ;; Data sizes:     COMMON   BANK0   BANK1   BANK3   BANK2
  2390 ;;      Params:         0       0       0       0       0
  2391 ;;      Locals:         0       0       0       0       0
  2392 ;;      Temps:          0       0       0       0       0
  2393 ;;      Totals:         0       0       0       0       0
  2394 ;;Total ram usage:        0 bytes
  2395 ;; Hardware stack levels used: 1
  2396 ;; Hardware stack levels required when called: 4
  2397 ;; This function calls:
  2398 ;;		_init_clcd
  2399 ;;		_init_matrix_keypad
  2400 ;;		_init_timer2
  2401 ;; This function is called by:
  2402 ;;		_main
  2403 ;; This function uses a non-reentrant model
  2404 ;;
  2405                           
  2406     0691                     _init_config:	
  2407                           ;psect for function _init_config
  2408                           
  2409     0691                     l2063:	
  2410                           ;incstack = 0
  2411                           ; Regs used in _init_config: [wreg+status,2+status,0+pclath+cstack]
  2412                           
  2413                           
  2414                           ;main.c: 18:     init_config();
  2415     0691  120A  118A  26C0  120A  118A  	fcall	_init_clcd
  2416                           
  2417                           ;main.c: 20:     static int reset_flag=0x05;
  2418     0696  120A  118A  26A3  120A  118A  	fcall	_init_matrix_keypad
  2419                           
  2420                           ;main.c: 23:     while (1) {
  2421     069B  120A  118A  26B3  120A  118A  	fcall	_init_timer2
  2422     06A0                     l2065:
  2423                           
  2424                           ;main.c: 25:         key=read_matrix_keypad(1);
  2425     06A0  170B               	bsf	11,6	;volatile
  2426     06A1                     l2067:
  2427                           
  2428                           ;main.c: 26: 
  2429     06A1  178B               	bsf	11,7	;volatile
  2430     06A2                     l41:
  2431     06A2  0008               	return
  2432     06A3                     __end_of_init_config:
  2433                           
  2434                           	psect	text8
  2435     06B3                     __ptext8:	
  2436 ;; *************** function _init_timer2 *****************
  2437 ;; Defined at:
  2438 ;;		line 4 in file "timers_1.c"
  2439 ;; Parameters:    Size  Location     Type
  2440 ;;		None
  2441 ;; Auto vars:     Size  Location     Type
  2442 ;;		None
  2443 ;; Return value:  Size  Location     Type
  2444 ;;                  1    wreg      void 
  2445 ;; Registers used:
  2446 ;;		wreg
  2447 ;; Tracked objects:
  2448 ;;		On entry : 0/0
  2449 ;;		On exit  : 0/0
  2450 ;;		Unchanged: 0/0
  2451 ;; Data sizes:     COMMON   BANK0   BANK1   BANK3   BANK2
  2452 ;;      Params:         0       0       0       0       0
  2453 ;;      Locals:         0       0       0       0       0
  2454 ;;      Temps:          0       0       0       0       0
  2455 ;;      Totals:         0       0       0       0       0
  2456 ;;Total ram usage:        0 bytes
  2457 ;; Hardware stack levels used: 1
  2458 ;; Hardware stack levels required when called: 1
  2459 ;; This function calls:
  2460 ;;		Nothing
  2461 ;; This function is called by:
  2462 ;;		_init_config
  2463 ;; This function uses a non-reentrant model
  2464 ;;
  2465                           
  2466     06B3                     _init_timer2:	
  2467                           ;psect for function _init_timer2
  2468                           
  2469     06B3                     l1411:	
  2470                           ;incstack = 0
  2471                           ; Regs used in _init_timer2: [wreg]
  2472                           
  2473                           
  2474                           ;timers_1.c: 7:     T2CKPS0 = 1;
  2475     06B3  1283               	bcf	3,5	;RP0=0, select bank0
  2476     06B4  1303               	bcf	3,6	;RP1=0, select bank0
  2477     06B5  1412               	bsf	18,0	;volatile
  2478                           
  2479                           ;timers_1.c: 8:     T2CKPS1 = 1;
  2480     06B6  1492               	bsf	18,1	;volatile
  2481     06B7                     l1413:
  2482                           
  2483                           ;timers_1.c: 11:     PR2 = 250;
  2484     06B7  30FA               	movlw	250
  2485     06B8  1683               	bsf	3,5	;RP0=1, select bank1
  2486     06B9  1303               	bcf	3,6	;RP1=0, select bank1
  2487     06BA  0092               	movwf	18	;volatile
  2488     06BB                     l1415:
  2489                           
  2490                           ;timers_1.c: 14:     TMR2IE = 1;
  2491     06BB  148C               	bsf	12,1	;volatile
  2492     06BC                     l1417:
  2493                           
  2494                           ;timers_1.c: 17:     TMR2ON = 0;
  2495     06BC  1283               	bcf	3,5	;RP0=0, select bank0
  2496     06BD  1303               	bcf	3,6	;RP1=0, select bank0
  2497     06BE  1112               	bcf	18,2	;volatile
  2498     06BF                     l216:
  2499     06BF  0008               	return
  2500     06C0                     __end_of_init_timer2:
  2501                           
  2502                           	psect	text9
  2503     06A3                     __ptext9:	
  2504 ;; *************** function _init_matrix_keypad *****************
  2505 ;; Defined at:
  2506 ;;		line 14 in file "matrix_keypad_1.c"
  2507 ;; Parameters:    Size  Location     Type
  2508 ;;		None
  2509 ;; Auto vars:     Size  Location     Type
  2510 ;;		None
  2511 ;; Return value:  Size  Location     Type
  2512 ;;                  1    wreg      void 
  2513 ;; Registers used:
  2514 ;;		wreg, status,2
  2515 ;; Tracked objects:
  2516 ;;		On entry : 0/0
  2517 ;;		On exit  : 0/0
  2518 ;;		Unchanged: 0/0
  2519 ;; Data sizes:     COMMON   BANK0   BANK1   BANK3   BANK2
  2520 ;;      Params:         0       0       0       0       0
  2521 ;;      Locals:         0       0       0       0       0
  2522 ;;      Temps:          0       0       0       0       0
  2523 ;;      Totals:         0       0       0       0       0
  2524 ;;Total ram usage:        0 bytes
  2525 ;; Hardware stack levels used: 1
  2526 ;; Hardware stack levels required when called: 1
  2527 ;; This function calls:
  2528 ;;		Nothing
  2529 ;; This function is called by:
  2530 ;;		_init_config
  2531 ;; This function uses a non-reentrant model
  2532 ;;
  2533                           
  2534     06A3                     _init_matrix_keypad:	
  2535                           ;psect for function _init_matrix_keypad
  2536                           
  2537     06A3                     l1399:	
  2538                           ;incstack = 0
  2539                           ; Regs used in _init_matrix_keypad: [wreg+status,2]
  2540                           
  2541                           
  2542                           ;matrix_keypad_1.c: 18:     RD2=1;
  2543     06A3  1683               	bsf	3,5	;RP0=1, select bank1
  2544     06A4  1303               	bcf	3,6	;RP1=0, select bank1
  2545     06A5  0806               	movf	6,w	;volatile
  2546     06A6  3807               	iorlw	7
  2547     06A7  0086               	movwf	6	;volatile
  2548                           
  2549                           ;matrix_keypad_1.c: 23: 
  2550     06A8  0808               	movf	8,w	;volatile
  2551     06A9  39F0               	andlw	240
  2552     06AA  0088               	movwf	8	;volatile
  2553     06AB                     l1401:
  2554                           
  2555                           ;matrix_keypad_1.c: 27:     int i;
  2556     06AB  1381               	bcf	1,7	;volatile
  2557     06AC                     l1403:
  2558                           
  2559                           ;matrix_keypad_1.c: 31:     RD0=1;
  2560     06AC  1283               	bcf	3,5	;RP0=0, select bank0
  2561     06AD  1303               	bcf	3,6	;RP1=0, select bank0
  2562     06AE  1588               	bsf	8,3	;volatile
  2563     06AF                     l1405:
  2564                           
  2565                           ;matrix_keypad_1.c: 32: 
  2566     06AF  1508               	bsf	8,2	;volatile
  2567     06B0                     l1407:
  2568                           
  2569                           ;matrix_keypad_1.c: 33:     for(i=100;i>0;i--);
  2570     06B0  1488               	bsf	8,1	;volatile
  2571     06B1                     l1409:
  2572                           
  2573                           ;matrix_keypad_1.c: 34: 
  2574     06B1  1408               	bsf	8,0	;volatile
  2575     06B2                     l162:
  2576     06B2  0008               	return
  2577     06B3                     __end_of_init_matrix_keypad:
  2578                           
  2579                           	psect	text10
  2580     06C0                     __ptext10:	
  2581 ;; *************** function _init_clcd *****************
  2582 ;; Defined at:
  2583 ;;		line 4 in file "clcd.c"
  2584 ;; Parameters:    Size  Location     Type
  2585 ;;		None
  2586 ;; Auto vars:     Size  Location     Type
  2587 ;;		None
  2588 ;; Return value:  Size  Location     Type
  2589 ;;                  1    wreg      void 
  2590 ;; Registers used:
  2591 ;;		wreg, status,2, status,0, pclath, cstack
  2592 ;; Tracked objects:
  2593 ;;		On entry : 0/0
  2594 ;;		On exit  : 0/0
  2595 ;;		Unchanged: 0/0
  2596 ;; Data sizes:     COMMON   BANK0   BANK1   BANK3   BANK2
  2597 ;;      Params:         0       0       0       0       0
  2598 ;;      Locals:         0       0       0       0       0
  2599 ;;      Temps:          0       0       0       0       0
  2600 ;;      Totals:         0       0       0       0       0
  2601 ;;Total ram usage:        0 bytes
  2602 ;; Hardware stack levels used: 1
  2603 ;; Hardware stack levels required when called: 3
  2604 ;; This function calls:
  2605 ;;		_init_display_controller
  2606 ;; This function is called by:
  2607 ;;		_init_config
  2608 ;; This function uses a non-reentrant model
  2609 ;;
  2610                           
  2611     06C0                     _init_clcd:	
  2612                           ;psect for function _init_clcd
  2613                           
  2614     06C0                     l1959:	
  2615                           ;incstack = 0
  2616                           ; Regs used in _init_clcd: [wreg+status,2+status,0+pclath+cstack]
  2617                           
  2618                           
  2619                           ;clcd.c: 7:     TRISD = 0x00;
  2620     06C0  1683               	bsf	3,5	;RP0=1, select bank1
  2621     06C1  1303               	bcf	3,6	;RP1=0, select bank1
  2622     06C2  0188               	clrf	8	;volatile
  2623     06C3                     l1961:
  2624                           
  2625                           ;clcd.c: 10:     TRISE2 = 0;
  2626     06C3  1109               	bcf	9,2	;volatile
  2627     06C4                     l1963:
  2628                           
  2629                           ;clcd.c: 11:     TRISE1 = 0;
  2630     06C4  1089               	bcf	9,1	;volatile
  2631     06C5                     l1965:
  2632                           
  2633                           ;clcd.c: 13:     init_display_controller();
  2634     06C5  120A  118A  2376  120A  118A  	fcall	_init_display_controller
  2635     06CA                     l124:
  2636     06CA  0008               	return
  2637     06CB                     __end_of_init_clcd:
  2638                           
  2639                           	psect	text11
  2640     0376                     __ptext11:	
  2641 ;; *************** function _init_display_controller *****************
  2642 ;; Defined at:
  2643 ;;		line 16 in file "clcd.c"
  2644 ;; Parameters:    Size  Location     Type
  2645 ;;		None
  2646 ;; Auto vars:     Size  Location     Type
  2647 ;;		None
  2648 ;; Return value:  Size  Location     Type
  2649 ;;                  1    wreg      void 
  2650 ;; Registers used:
  2651 ;;		wreg, status,2, status,0, pclath, cstack
  2652 ;; Tracked objects:
  2653 ;;		On entry : 0/0
  2654 ;;		On exit  : 0/0
  2655 ;;		Unchanged: 0/0
  2656 ;; Data sizes:     COMMON   BANK0   BANK1   BANK3   BANK2
  2657 ;;      Params:         0       0       0       0       0
  2658 ;;      Locals:         0       0       0       0       0
  2659 ;;      Temps:          0       2       0       0       0
  2660 ;;      Totals:         0       2       0       0       0
  2661 ;;Total ram usage:        2 bytes
  2662 ;; Hardware stack levels used: 1
  2663 ;; Hardware stack levels required when called: 2
  2664 ;; This function calls:
  2665 ;;		_clcd_write
  2666 ;; This function is called by:
  2667 ;;		_init_clcd
  2668 ;; This function uses a non-reentrant model
  2669 ;;
  2670                           
  2671     0376                     _init_display_controller:	
  2672                           ;psect for function _init_display_controller
  2673                           
  2674     0376                     l1935:	
  2675                           ;incstack = 0
  2676                           ; Regs used in _init_display_controller: [wreg+status,2+status,0+pclath+cstack]
  2677                           
  2678                           
  2679                           ;clcd.c: 19:     _delay((unsigned long)((30)*(20000000/4000.0)));
  2680     0376  30C3               	movlw	195
  2681     0377  1283               	bcf	3,5	;RP0=0, select bank0
  2682     0378  1303               	bcf	3,6	;RP1=0, select bank0
  2683     0379  00A1               	movwf	??_init_display_controller+1
  2684     037A  30CC               	movlw	204
  2685     037B  00A0               	movwf	??_init_display_controller
  2686     037C                     u1867:
  2687     037C  0BA0               	decfsz	??_init_display_controller,f
  2688     037D  2B7C               	goto	u1867
  2689     037E  0BA1               	decfsz	??_init_display_controller+1,f
  2690     037F  2B7C               	goto	u1867
  2691     0380  0000               	nop
  2692     0381                     l1937:
  2693                           
  2694                           ;clcd.c: 22:     clcd_write(0x33, 0);
  2695     0381  01F3               	clrf	clcd_write@mode
  2696     0382  3033               	movlw	51
  2697     0383  120A  118A  25D0  120A  118A  	fcall	_clcd_write
  2698     0388                     l1939:
  2699                           
  2700                           ;clcd.c: 23:     _delay((unsigned long)((4100)*(20000000/4000000.0)));
  2701     0388  301B               	movlw	27
  2702     0389  1283               	bcf	3,5	;RP0=0, select bank0
  2703     038A  1303               	bcf	3,6	;RP1=0, select bank0
  2704     038B  00A1               	movwf	??_init_display_controller+1
  2705     038C  309D               	movlw	157
  2706     038D  00A0               	movwf	??_init_display_controller
  2707     038E                     u1877:
  2708     038E  0BA0               	decfsz	??_init_display_controller,f
  2709     038F  2B8E               	goto	u1877
  2710     0390  0BA1               	decfsz	??_init_display_controller+1,f
  2711     0391  2B8E               	goto	u1877
  2712     0392  2B93               	nop2
  2713                           
  2714                           ;clcd.c: 24:     clcd_write(0x33, 0);
  2715     0393  01F3               	clrf	clcd_write@mode
  2716     0394  3033               	movlw	51
  2717     0395  120A  118A  25D0  120A  118A  	fcall	_clcd_write
  2718     039A                     l1941:
  2719                           
  2720                           ;clcd.c: 25:     _delay((unsigned long)((100)*(20000000/4000000.0)));
  2721     039A  30A5               	movlw	165
  2722     039B  1283               	bcf	3,5	;RP0=0, select bank0
  2723     039C  1303               	bcf	3,6	;RP1=0, select bank0
  2724     039D  00A0               	movwf	??_init_display_controller
  2725     039E                     u1887:
  2726     039E  0BA0               	decfsz	??_init_display_controller,f
  2727     039F  2B9E               	goto	u1887
  2728     03A0  2BA1               	nop2
  2729     03A1                     l1943:
  2730                           
  2731                           ;clcd.c: 26:     clcd_write(0x33, 0);
  2732     03A1  01F3               	clrf	clcd_write@mode
  2733     03A2  3033               	movlw	51
  2734     03A3  120A  118A  25D0  120A  118A  	fcall	_clcd_write
  2735     03A8                     l1945:
  2736                           
  2737                           ;clcd.c: 27:     _delay((unsigned long)((1)*(20000000/4000000.0)));
  2738     03A8  2BA9               	nop2	;2 cycle nop
  2739     03A9  2BAA               	nop2	;2 cycle nop
  2740     03AA  0000               	nop
  2741     03AB                     l1947:
  2742                           
  2743                           ;clcd.c: 29:     clcd_write(0x02, 0);
  2744     03AB  01F3               	clrf	clcd_write@mode
  2745     03AC  3002               	movlw	2
  2746     03AD  120A  118A  25D0  120A  118A  	fcall	_clcd_write
  2747     03B2                     l1949:
  2748                           
  2749                           ;clcd.c: 30:     _delay((unsigned long)((100)*(20000000/4000000.0)));
  2750     03B2  30A5               	movlw	165
  2751     03B3  1283               	bcf	3,5	;RP0=0, select bank0
  2752     03B4  1303               	bcf	3,6	;RP1=0, select bank0
  2753     03B5  00A0               	movwf	??_init_display_controller
  2754     03B6                     u1897:
  2755     03B6  0BA0               	decfsz	??_init_display_controller,f
  2756     03B7  2BB6               	goto	u1897
  2757     03B8  2BB9               	nop2
  2758                           
  2759                           ;clcd.c: 31:     clcd_write(0x28, 0);
  2760     03B9  01F3               	clrf	clcd_write@mode
  2761     03BA  3028               	movlw	40
  2762     03BB  120A  118A  25D0  120A  118A  	fcall	_clcd_write
  2763     03C0                     l1951:
  2764                           
  2765                           ;clcd.c: 32:     _delay((unsigned long)((100)*(20000000/4000000.0)));
  2766     03C0  30A5               	movlw	165
  2767     03C1  1283               	bcf	3,5	;RP0=0, select bank0
  2768     03C2  1303               	bcf	3,6	;RP1=0, select bank0
  2769     03C3  00A0               	movwf	??_init_display_controller
  2770     03C4                     u1907:
  2771     03C4  0BA0               	decfsz	??_init_display_controller,f
  2772     03C5  2BC4               	goto	u1907
  2773     03C6  2BC7               	nop2
  2774     03C7                     l1953:
  2775                           
  2776                           ;clcd.c: 33:     clcd_write(0x01, 0);
  2777     03C7  01F3               	clrf	clcd_write@mode
  2778     03C8  3001               	movlw	1
  2779     03C9  120A  118A  25D0  120A  118A  	fcall	_clcd_write
  2780                           
  2781                           ;clcd.c: 34:     _delay((unsigned long)((500)*(20000000/4000000.0)));
  2782     03CE  3004               	movlw	4
  2783     03CF  1283               	bcf	3,5	;RP0=0, select bank0
  2784     03D0  1303               	bcf	3,6	;RP1=0, select bank0
  2785     03D1  00A1               	movwf	??_init_display_controller+1
  2786     03D2  303D               	movlw	61
  2787     03D3  00A0               	movwf	??_init_display_controller
  2788     03D4                     u1917:
  2789     03D4  0BA0               	decfsz	??_init_display_controller,f
  2790     03D5  2BD4               	goto	u1917
  2791     03D6  0BA1               	decfsz	??_init_display_controller+1,f
  2792     03D7  2BD4               	goto	u1917
  2793     03D8                     l1955:
  2794                           
  2795                           ;clcd.c: 35:     clcd_write(0x0C, 0);
  2796     03D8  01F3               	clrf	clcd_write@mode
  2797     03D9  300C               	movlw	12
  2798     03DA  120A  118A  25D0  120A  118A  	fcall	_clcd_write
  2799     03DF                     l1957:
  2800                           
  2801                           ;clcd.c: 36:     _delay((unsigned long)((100)*(20000000/4000000.0)));
  2802     03DF  30A5               	movlw	165
  2803     03E0  1283               	bcf	3,5	;RP0=0, select bank0
  2804     03E1  1303               	bcf	3,6	;RP1=0, select bank0
  2805     03E2  00A0               	movwf	??_init_display_controller
  2806     03E3                     u1927:
  2807     03E3  0BA0               	decfsz	??_init_display_controller,f
  2808     03E4  2BE3               	goto	u1927
  2809     03E5  2BE6               	nop2
  2810     03E6                     l127:
  2811     03E6  0008               	return
  2812     03E7                     __end_of_init_display_controller:
  2813                           
  2814                           	psect	text12
  2815     02B7                     __ptext12:	
  2816 ;; *************** function _clock_screen *****************
  2817 ;; Defined at:
  2818 ;;		line 62 in file "main.c"
  2819 ;; Parameters:    Size  Location     Type
  2820 ;;		None
  2821 ;; Auto vars:     Size  Location     Type
  2822 ;;		None
  2823 ;; Return value:  Size  Location     Type
  2824 ;;                  1    wreg      void 
  2825 ;; Registers used:
  2826 ;;		wreg, fsr0l, fsr0h, status,2, status,0, btemp+1, pclath, cstack
  2827 ;; Tracked objects:
  2828 ;;		On entry : 0/0
  2829 ;;		On exit  : 0/0
  2830 ;;		Unchanged: 0/0
  2831 ;; Data sizes:     COMMON   BANK0   BANK1   BANK3   BANK2
  2832 ;;      Params:         0       0       0       0       0
  2833 ;;      Locals:         0       0       0       0       0
  2834 ;;      Temps:          0       2       0       0       0
  2835 ;;      Totals:         0       2       0       0       0
  2836 ;;Total ram usage:        2 bytes
  2837 ;; Hardware stack levels used: 1
  2838 ;; Hardware stack levels required when called: 3
  2839 ;; This function calls:
  2840 ;;		___awdiv
  2841 ;;		___awmod
  2842 ;;		_clcd_print
  2843 ;;		_clcd_putch
  2844 ;; This function is called by:
  2845 ;;		_main
  2846 ;; This function uses a non-reentrant model
  2847 ;;
  2848                           
  2849     02B7                     _clock_screen:	
  2850                           ;psect for function _clock_screen
  2851                           
  2852     02B7                     l2203:	
  2853                           ;incstack = 0
  2854                           ; Regs used in _clock_screen: [wreg-fsr0h+status,2+status,0+btemp+1+pclath+cstack]
  2855                           
  2856                           
  2857                           ;main.c: 64: }
  2858     02B7  30C0               	movlw	192
  2859     02B8  00F7               	movwf	clcd_print@addr
  2860     02B9  3032               	movlw	(low ((STR_1-__stringbase)| (0+32768)))& (0+255)
  2861     02BA  120A  118A  2606  120A  118A  	fcall	_clcd_print
  2862     02BF                     l2205:
  2863                           
  2864                           ;main.c: 66: {
  2865     02BF  30C6               	movlw	198
  2866     02C0  1283               	bcf	3,5	;RP0=0, select bank0
  2867     02C1  1303               	bcf	3,6	;RP1=0, select bank0
  2868     02C2  00A4               	movwf	clcd_putch@addr
  2869     02C3  300A               	movlw	10
  2870     02C4  00F3               	movwf	___awdiv@divisor
  2871     02C5  3000               	movlw	0
  2872     02C6  00F4               	movwf	___awdiv@divisor+1
  2873     02C7  082F               	movf	_hour,w
  2874     02C8  00A5               	movwf	??_clock_screen
  2875     02C9  01A6               	clrf	??_clock_screen+1
  2876     02CA  0825               	movf	??_clock_screen,w
  2877     02CB  00F5               	movwf	___awdiv@dividend
  2878     02CC  0826               	movf	??_clock_screen+1,w
  2879     02CD  00F6               	movwf	___awdiv@dividend+1
  2880     02CE  120A  118A  23E7  120A  118A  	fcall	___awdiv
  2881     02D3  0873               	movf	?___awdiv,w
  2882     02D4  3E30               	addlw	48
  2883     02D5  120A  118A  266C  120A  118A  	fcall	_clcd_putch
  2884     02DA                     l2207:
  2885                           
  2886                           ;main.c: 67:     static unsigned char key_count,blink_pos,blink,wait;
  2887     02DA  30C7               	movlw	199
  2888     02DB  1283               	bcf	3,5	;RP0=0, select bank0
  2889     02DC  1303               	bcf	3,6	;RP1=0, select bank0
  2890     02DD  00A4               	movwf	clcd_putch@addr
  2891     02DE  300A               	movlw	10
  2892     02DF  00F3               	movwf	___awmod@divisor
  2893     02E0  3000               	movlw	0
  2894     02E1  00F4               	movwf	___awmod@divisor+1
  2895     02E2  082F               	movf	_hour,w
  2896     02E3  00A5               	movwf	??_clock_screen
  2897     02E4  01A6               	clrf	??_clock_screen+1
  2898     02E5  0825               	movf	??_clock_screen,w
  2899     02E6  00F5               	movwf	___awmod@dividend
  2900     02E7  0826               	movf	??_clock_screen+1,w
  2901     02E8  00F6               	movwf	___awmod@dividend+1
  2902     02E9  120A  118A  24B3  120A  118A  	fcall	___awmod
  2903     02EE  0873               	movf	?___awmod,w
  2904     02EF  3E30               	addlw	48
  2905     02F0  120A  118A  266C  120A  118A  	fcall	_clcd_putch
  2906     02F5                     l2209:
  2907                           
  2908                           ;main.c: 68: 
  2909     02F5  30C8               	movlw	200
  2910     02F6  1283               	bcf	3,5	;RP0=0, select bank0
  2911     02F7  1303               	bcf	3,6	;RP1=0, select bank0
  2912     02F8  00A4               	movwf	clcd_putch@addr
  2913     02F9  303A               	movlw	58
  2914     02FA  120A  118A  266C  120A  118A  	fcall	_clcd_putch
  2915     02FF                     l2211:
  2916                           
  2917                           ;main.c: 70:     {
  2918     02FF  30C9               	movlw	201
  2919     0300  1283               	bcf	3,5	;RP0=0, select bank0
  2920     0301  1303               	bcf	3,6	;RP1=0, select bank0
  2921     0302  00A4               	movwf	clcd_putch@addr
  2922     0303  300A               	movlw	10
  2923     0304  00F3               	movwf	___awdiv@divisor
  2924     0305  3000               	movlw	0
  2925     0306  00F4               	movwf	___awdiv@divisor+1
  2926     0307  0830               	movf	_min,w
  2927     0308  00A5               	movwf	??_clock_screen
  2928     0309  01A6               	clrf	??_clock_screen+1
  2929     030A  0825               	movf	??_clock_screen,w
  2930     030B  00F5               	movwf	___awdiv@dividend
  2931     030C  0826               	movf	??_clock_screen+1,w
  2932     030D  00F6               	movwf	___awdiv@dividend+1
  2933     030E  120A  118A  23E7  120A  118A  	fcall	___awdiv
  2934     0313  0873               	movf	?___awdiv,w
  2935     0314  3E30               	addlw	48
  2936     0315  120A  118A  266C  120A  118A  	fcall	_clcd_putch
  2937     031A                     l2213:
  2938                           
  2939                           ;main.c: 71:     key_count=0;
  2940     031A  30CA               	movlw	202
  2941     031B  1283               	bcf	3,5	;RP0=0, select bank0
  2942     031C  1303               	bcf	3,6	;RP1=0, select bank0
  2943     031D  00A4               	movwf	clcd_putch@addr
  2944     031E  300A               	movlw	10
  2945     031F  00F3               	movwf	___awmod@divisor
  2946     0320  3000               	movlw	0
  2947     0321  00F4               	movwf	___awmod@divisor+1
  2948     0322  0830               	movf	_min,w
  2949     0323  00A5               	movwf	??_clock_screen
  2950     0324  01A6               	clrf	??_clock_screen+1
  2951     0325  0825               	movf	??_clock_screen,w
  2952     0326  00F5               	movwf	___awmod@dividend
  2953     0327  0826               	movf	??_clock_screen+1,w
  2954     0328  00F6               	movwf	___awmod@dividend+1
  2955     0329  120A  118A  24B3  120A  118A  	fcall	___awmod
  2956     032E  0873               	movf	?___awmod,w
  2957     032F  3E30               	addlw	48
  2958     0330  120A  118A  266C  120A  118A  	fcall	_clcd_putch
  2959     0335                     l2215:
  2960                           
  2961                           ;main.c: 72:     sec=0;
  2962     0335  30CB               	movlw	203
  2963     0336  1283               	bcf	3,5	;RP0=0, select bank0
  2964     0337  1303               	bcf	3,6	;RP1=0, select bank0
  2965     0338  00A4               	movwf	clcd_putch@addr
  2966     0339  303A               	movlw	58
  2967     033A  120A  118A  266C  120A  118A  	fcall	_clcd_putch
  2968     033F                     l2217:
  2969                           
  2970                           ;main.c: 74:     hour=0;
  2971     033F  30CC               	movlw	204
  2972     0340  1283               	bcf	3,5	;RP0=0, select bank0
  2973     0341  1303               	bcf	3,6	;RP1=0, select bank0
  2974     0342  00A4               	movwf	clcd_putch@addr
  2975     0343  300A               	movlw	10
  2976     0344  00F3               	movwf	___awdiv@divisor
  2977     0345  3000               	movlw	0
  2978     0346  00F4               	movwf	___awdiv@divisor+1
  2979     0347  0831               	movf	_sec,w
  2980     0348  00A5               	movwf	??_clock_screen
  2981     0349  01A6               	clrf	??_clock_screen+1
  2982     034A  0825               	movf	??_clock_screen,w
  2983     034B  00F5               	movwf	___awdiv@dividend
  2984     034C  0826               	movf	??_clock_screen+1,w
  2985     034D  00F6               	movwf	___awdiv@dividend+1
  2986     034E  120A  118A  23E7  120A  118A  	fcall	___awdiv
  2987     0353  0873               	movf	?___awdiv,w
  2988     0354  3E30               	addlw	48
  2989     0355  120A  118A  266C  120A  118A  	fcall	_clcd_putch
  2990     035A                     l2219:
  2991                           
  2992                           ;main.c: 75:     blink_pos=0;
  2993     035A  30CD               	movlw	205
  2994     035B  1283               	bcf	3,5	;RP0=0, select bank0
  2995     035C  1303               	bcf	3,6	;RP1=0, select bank0
  2996     035D  00A4               	movwf	clcd_putch@addr
  2997     035E  300A               	movlw	10
  2998     035F  00F3               	movwf	___awmod@divisor
  2999     0360  3000               	movlw	0
  3000     0361  00F4               	movwf	___awmod@divisor+1
  3001     0362  0831               	movf	_sec,w
  3002     0363  00A5               	movwf	??_clock_screen
  3003     0364  01A6               	clrf	??_clock_screen+1
  3004     0365  0825               	movf	??_clock_screen,w
  3005     0366  00F5               	movwf	___awmod@dividend
  3006     0367  0826               	movf	??_clock_screen+1,w
  3007     0368  00F6               	movwf	___awmod@dividend+1
  3008     0369  120A  118A  24B3  120A  118A  	fcall	___awmod
  3009     036E  0873               	movf	?___awmod,w
  3010     036F  3E30               	addlw	48
  3011     0370  120A  118A  266C  120A  118A  	fcall	_clcd_putch
  3012     0375                     l59:
  3013     0375  0008               	return
  3014     0376                     __end_of_clock_screen:
  3015                           
  3016                           	psect	text13
  3017     066C                     __ptext13:	
  3018 ;; *************** function _clcd_putch *****************
  3019 ;; Defined at:
  3020 ;;		line 41 in file "clcd.c"
  3021 ;; Parameters:    Size  Location     Type
  3022 ;;  data            1    wreg     const unsigned char 
  3023 ;;  addr            1    4[BANK0 ] unsigned char 
  3024 ;; Auto vars:     Size  Location     Type
  3025 ;;  data            1    7[COMMON] const unsigned char 
  3026 ;; Return value:  Size  Location     Type
  3027 ;;                  1    wreg      void 
  3028 ;; Registers used:
  3029 ;;		wreg, status,2, status,0, pclath, cstack
  3030 ;; Tracked objects:
  3031 ;;		On entry : 0/0
  3032 ;;		On exit  : 0/0
  3033 ;;		Unchanged: 0/0
  3034 ;; Data sizes:     COMMON   BANK0   BANK1   BANK3   BANK2
  3035 ;;      Params:         0       1       0       0       0
  3036 ;;      Locals:         1       0       0       0       0
  3037 ;;      Temps:          0       0       0       0       0
  3038 ;;      Totals:         1       1       0       0       0
  3039 ;;Total ram usage:        2 bytes
  3040 ;; Hardware stack levels used: 1
  3041 ;; Hardware stack levels required when called: 2
  3042 ;; This function calls:
  3043 ;;		_clcd_write
  3044 ;; This function is called by:
  3045 ;;		_clock_screen
  3046 ;;		_set_time
  3047 ;;		_turn_on
  3048 ;; This function uses a non-reentrant model
  3049 ;;
  3050                           
  3051     066C                     _clcd_putch:	
  3052                           ;psect for function _clcd_putch
  3053                           
  3054                           
  3055                           ;incstack = 0
  3056                           ; Regs used in _clcd_putch: [wreg+status,2+status,0+pclath+cstack]
  3057                           ;clcd_putch@data stored from wreg
  3058     066C  00F7               	movwf	clcd_putch@data
  3059     066D                     l1979:
  3060                           
  3061                           ;clcd.c: 41: void clcd_putch(const char data, unsigned char addr);clcd.c: 42: {;clcd.c: 
      +                          43:     clcd_write(addr, 0);
  3062     066D  01F3               	clrf	clcd_write@mode
  3063     066E  1283               	bcf	3,5	;RP0=0, select bank0
  3064     066F  1303               	bcf	3,6	;RP1=0, select bank0
  3065     0670  0824               	movf	clcd_putch@addr,w
  3066     0671  120A  118A  25D0  120A  118A  	fcall	_clcd_write
  3067                           
  3068                           ;clcd.c: 44:     clcd_write(data, 1);
  3069     0676  01F3               	clrf	clcd_write@mode
  3070     0677  0AF3               	incf	clcd_write@mode,f
  3071     0678  0877               	movf	clcd_putch@data,w
  3072     0679  120A  118A  25D0  120A  118A  	fcall	_clcd_write
  3073     067E                     l130:
  3074     067E  0008               	return
  3075     067F                     __end_of_clcd_putch:
  3076                           
  3077                           	psect	text14
  3078     0606                     __ptext14:	
  3079 ;; *************** function _clcd_print *****************
  3080 ;; Defined at:
  3081 ;;		line 47 in file "clcd.c"
  3082 ;; Parameters:    Size  Location     Type
  3083 ;;  str             1    wreg     PTR const unsigned char 
  3084 ;;		 -> STR_8(16), STR_7(3), STR_6(3), STR_5(3), 
  3085 ;;		 -> STR_4(17), STR_3(6), STR_2(16), STR_1(6), 
  3086 ;;  addr            1    7[COMMON] unsigned char 
  3087 ;; Auto vars:     Size  Location     Type
  3088 ;;  str             1    0[BANK0 ] PTR const unsigned char 
  3089 ;;		 -> STR_8(16), STR_7(3), STR_6(3), STR_5(3), 
  3090 ;;		 -> STR_4(17), STR_3(6), STR_2(16), STR_1(6), 
  3091 ;; Return value:  Size  Location     Type
  3092 ;;                  1    wreg      void 
  3093 ;; Registers used:
  3094 ;;		wreg, fsr0l, fsr0h, status,2, status,0, btemp+1, pclath, cstack
  3095 ;; Tracked objects:
  3096 ;;		On entry : 0/0
  3097 ;;		On exit  : 0/0
  3098 ;;		Unchanged: 0/0
  3099 ;; Data sizes:     COMMON   BANK0   BANK1   BANK3   BANK2
  3100 ;;      Params:         1       0       0       0       0
  3101 ;;      Locals:         0       1       0       0       0
  3102 ;;      Temps:          0       0       0       0       0
  3103 ;;      Totals:         1       1       0       0       0
  3104 ;;Total ram usage:        2 bytes
  3105 ;; Hardware stack levels used: 1
  3106 ;; Hardware stack levels required when called: 2
  3107 ;; This function calls:
  3108 ;;		_clcd_write
  3109 ;; This function is called by:
  3110 ;;		_clock_screen
  3111 ;;		_set_time
  3112 ;;		_turn_on
  3113 ;; This function uses a non-reentrant model
  3114 ;;
  3115                           
  3116     0606                     _clcd_print:	
  3117                           ;psect for function _clcd_print
  3118                           
  3119                           
  3120                           ;incstack = 0
  3121                           ; Regs used in _clcd_print: [wreg-fsr0h+status,2+status,0+btemp+1+pclath+cstack]
  3122                           ;clcd_print@str stored from wreg
  3123     0606  1283               	bcf	3,5	;RP0=0, select bank0
  3124     0607  1303               	bcf	3,6	;RP1=0, select bank0
  3125     0608  00A0               	movwf	clcd_print@str
  3126     0609                     l1971:
  3127                           
  3128                           ;clcd.c: 47: void clcd_print(const char *str, unsigned char addr);clcd.c: 48: {;clcd.c: 
      +                          49:     clcd_write(addr, 0);
  3129     0609  01F3               	clrf	clcd_write@mode
  3130     060A  0877               	movf	clcd_print@addr,w
  3131     060B  120A  118A  25D0  120A  118A  	fcall	_clcd_write
  3132                           
  3133                           ;clcd.c: 51:     while (*str != '\0')
  3134     0610  2E25               	goto	l1977
  3135     0611                     l1973:
  3136                           
  3137                           ;clcd.c: 52:     {;clcd.c: 53:         clcd_write(*str, 1);
  3138     0611  01F3               	clrf	clcd_write@mode
  3139     0612  0AF3               	incf	clcd_write@mode,f
  3140     0613  0820               	movf	clcd_print@str,w
  3141     0614  0084               	movwf	4
  3142     0615  120A  118A  2558  120A  118A  	fcall	stringdir
  3143     061A  120A  118A  25D0  120A  118A  	fcall	_clcd_write
  3144     061F                     l1975:
  3145                           
  3146                           ;clcd.c: 54:         str++;
  3147     061F  3001               	movlw	1
  3148     0620  00FF               	movwf	btemp+1
  3149     0621  087F               	movf	btemp+1,w
  3150     0622  1283               	bcf	3,5	;RP0=0, select bank0
  3151     0623  1303               	bcf	3,6	;RP1=0, select bank0
  3152     0624  07A0               	addwf	clcd_print@str,f
  3153     0625                     l1977:
  3154                           
  3155                           ;clcd.c: 51:     while (*str != '\0')
  3156     0625  1283               	bcf	3,5	;RP0=0, select bank0
  3157     0626  1303               	bcf	3,6	;RP1=0, select bank0
  3158     0627  0820               	movf	clcd_print@str,w
  3159     0628  0084               	movwf	4
  3160     0629  120A  118A  2558  120A  118A  	fcall	stringdir
  3161     062E  3A00               	xorlw	0
  3162     062F  1D03               	skipz
  3163     0630  2E32               	goto	u1421
  3164     0631  2E33               	goto	u1420
  3165     0632                     u1421:
  3166     0632  2E11               	goto	l1973
  3167     0633                     u1420:
  3168     0633                     l136:
  3169     0633  0008               	return
  3170     0634                     __end_of_clcd_print:
  3171                           
  3172                           	psect	text15
  3173     05D0                     __ptext15:	
  3174 ;; *************** function _clcd_write *****************
  3175 ;; Defined at:
  3176 ;;		line 58 in file "clcd.c"
  3177 ;; Parameters:    Size  Location     Type
  3178 ;;  byte            1    wreg     unsigned char 
  3179 ;;  mode            1    3[COMMON] unsigned char 
  3180 ;; Auto vars:     Size  Location     Type
  3181 ;;  byte            1    6[COMMON] unsigned char 
  3182 ;; Return value:  Size  Location     Type
  3183 ;;                  1    wreg      void 
  3184 ;; Registers used:
  3185 ;;		wreg, status,2, status,0
  3186 ;; Tracked objects:
  3187 ;;		On entry : 0/0
  3188 ;;		On exit  : 0/0
  3189 ;;		Unchanged: 0/0
  3190 ;; Data sizes:     COMMON   BANK0   BANK1   BANK3   BANK2
  3191 ;;      Params:         1       0       0       0       0
  3192 ;;      Locals:         1       0       0       0       0
  3193 ;;      Temps:          2       0       0       0       0
  3194 ;;      Totals:         4       0       0       0       0
  3195 ;;Total ram usage:        4 bytes
  3196 ;; Hardware stack levels used: 1
  3197 ;; Hardware stack levels required when called: 1
  3198 ;; This function calls:
  3199 ;;		Nothing
  3200 ;; This function is called by:
  3201 ;;		_clear_screen
  3202 ;;		_init_display_controller
  3203 ;;		_clcd_putch
  3204 ;;		_clcd_print
  3205 ;; This function uses a non-reentrant model
  3206 ;;
  3207                           
  3208     05D0                     _clcd_write:	
  3209                           ;psect for function _clcd_write
  3210                           
  3211                           
  3212                           ;incstack = 0
  3213                           ; Regs used in _clcd_write: [wreg+status,2+status,0]
  3214                           ;clcd_write@byte stored from wreg
  3215     05D0  00F6               	movwf	clcd_write@byte
  3216     05D1                     l1915:
  3217                           
  3218                           ;clcd.c: 58: void clcd_write(unsigned char byte, unsigned char mode);clcd.c: 59: {;clcd.
      +                          c: 60:     RE2 = (__bit)mode;
  3219     05D1  1873               	btfsc	clcd_write@mode,0
  3220     05D2  2DD4               	goto	u1391
  3221     05D3  2DD8               	goto	u1390
  3222     05D4                     u1391:
  3223     05D4  1283               	bcf	3,5	;RP0=0, select bank0
  3224     05D5  1303               	bcf	3,6	;RP1=0, select bank0
  3225     05D6  1509               	bsf	9,2	;volatile
  3226     05D7  2DDB               	goto	u1404
  3227     05D8                     u1390:
  3228     05D8  1283               	bcf	3,5	;RP0=0, select bank0
  3229     05D9  1303               	bcf	3,6	;RP1=0, select bank0
  3230     05DA  1109               	bcf	9,2	;volatile
  3231     05DB                     u1404:
  3232     05DB                     l1917:
  3233                           
  3234                           ;clcd.c: 62:     PORTD = byte & 0xF0;
  3235     05DB  0876               	movf	clcd_write@byte,w
  3236     05DC  39F0               	andlw	240
  3237     05DD  0088               	movwf	8	;volatile
  3238     05DE                     l1919:
  3239                           
  3240                           ;clcd.c: 63:     RE1 = 1;
  3241     05DE  1489               	bsf	9,1	;volatile
  3242     05DF                     l1921:
  3243                           
  3244                           ;clcd.c: 64:     _delay((unsigned long)((100)*(20000000/4000000.0)));
  3245     05DF  30A6               	movlw	166
  3246     05E0  00F4               	movwf	??_clcd_write
  3247     05E1                     u1937:
  3248     05E1  0BF4               	decfsz	??_clcd_write,f
  3249     05E2  2DE1               	goto	u1937
  3250     05E3  0000               	nop
  3251     05E4                     l1923:
  3252                           
  3253                           ;clcd.c: 65:     RE1 = 0;
  3254     05E4  1283               	bcf	3,5	;RP0=0, select bank0
  3255     05E5  1303               	bcf	3,6	;RP1=0, select bank0
  3256     05E6  1089               	bcf	9,1	;volatile
  3257     05E7                     l1925:
  3258                           
  3259                           ;clcd.c: 67:     PORTD = (unsigned char)((byte & 0x0F) << 4);
  3260     05E7  0876               	movf	clcd_write@byte,w
  3261     05E8  390F               	andlw	15
  3262     05E9  00F4               	movwf	??_clcd_write
  3263     05EA  3003               	movlw	3
  3264     05EB                     u1415:
  3265     05EB  1003               	clrc
  3266     05EC  0DF4               	rlf	??_clcd_write,f
  3267     05ED  3EFF               	addlw	-1
  3268     05EE  1D03               	skipz
  3269     05EF  2DEB               	goto	u1415
  3270     05F0  1003               	clrc
  3271     05F1  0D74               	rlf	??_clcd_write,w
  3272     05F2  0088               	movwf	8	;volatile
  3273     05F3                     l1927:
  3274                           
  3275                           ;clcd.c: 68:     RE1 = 1;
  3276     05F3  1489               	bsf	9,1	;volatile
  3277     05F4                     l1929:
  3278                           
  3279                           ;clcd.c: 69:     _delay((unsigned long)((100)*(20000000/4000000.0)));
  3280     05F4  30A6               	movlw	166
  3281     05F5  00F4               	movwf	??_clcd_write
  3282     05F6                     u1947:
  3283     05F6  0BF4               	decfsz	??_clcd_write,f
  3284     05F7  2DF6               	goto	u1947
  3285     05F8  0000               	nop
  3286     05F9                     l1931:
  3287                           
  3288                           ;clcd.c: 70:     RE1 = 0;
  3289     05F9  1283               	bcf	3,5	;RP0=0, select bank0
  3290     05FA  1303               	bcf	3,6	;RP1=0, select bank0
  3291     05FB  1089               	bcf	9,1	;volatile
  3292     05FC                     l1933:
  3293                           
  3294                           ;clcd.c: 72:     _delay((unsigned long)((4100)*(20000000/4000000.0)));
  3295     05FC  301B               	movlw	27
  3296     05FD  00F5               	movwf	??_clcd_write+1
  3297     05FE  309E               	movlw	158
  3298     05FF  00F4               	movwf	??_clcd_write
  3299     0600                     u1957:
  3300     0600  0BF4               	decfsz	??_clcd_write,f
  3301     0601  2E00               	goto	u1957
  3302     0602  0BF5               	decfsz	??_clcd_write+1,f
  3303     0603  2E00               	goto	u1957
  3304     0604  0000               	nop
  3305     0605                     l139:
  3306     0605  0008               	return
  3307     0606                     __end_of_clcd_write:
  3308                           
  3309                           	psect	text16
  3310     04B3                     __ptext16:	
  3311 ;; *************** function ___awmod *****************
  3312 ;; Defined at:
  3313 ;;		line 5 in file "C:\Program Files\Microchip\xc8\v2.45\pic\sources\c99\common\awmod.c"
  3314 ;; Parameters:    Size  Location     Type
  3315 ;;  divisor         2    3[COMMON] int 
  3316 ;;  dividend        2    5[COMMON] int 
  3317 ;; Auto vars:     Size  Location     Type
  3318 ;;  sign            1    1[BANK0 ] unsigned char 
  3319 ;;  counter         1    0[BANK0 ] unsigned char 
  3320 ;; Return value:  Size  Location     Type
  3321 ;;                  2    3[COMMON] int 
  3322 ;; Registers used:
  3323 ;;		wreg, status,2, status,0, btemp+1
  3324 ;; Tracked objects:
  3325 ;;		On entry : 0/0
  3326 ;;		On exit  : 0/0
  3327 ;;		Unchanged: 0/0
  3328 ;; Data sizes:     COMMON   BANK0   BANK1   BANK3   BANK2
  3329 ;;      Params:         4       0       0       0       0
  3330 ;;      Locals:         0       2       0       0       0
  3331 ;;      Temps:          0       0       0       0       0
  3332 ;;      Totals:         4       2       0       0       0
  3333 ;;Total ram usage:        6 bytes
  3334 ;; Hardware stack levels used: 1
  3335 ;; Hardware stack levels required when called: 1
  3336 ;; This function calls:
  3337 ;;		Nothing
  3338 ;; This function is called by:
  3339 ;;		_clock_screen
  3340 ;;		_set_time
  3341 ;; This function uses a non-reentrant model
  3342 ;;
  3343                           
  3344     04B3                     ___awmod:	
  3345                           ;psect for function ___awmod
  3346                           
  3347     04B3                     l2025:	
  3348                           ;incstack = 0
  3349                           ; Regs used in ___awmod: [wreg+status,2+status,0+btemp+1]
  3350                           
  3351     04B3  1283               	bcf	3,5	;RP0=0, select bank0
  3352     04B4  1303               	bcf	3,6	;RP1=0, select bank0
  3353     04B5  01A1               	clrf	___awmod@sign
  3354     04B6                     l2027:
  3355     04B6  1FF6               	btfss	___awmod@dividend+1,7
  3356     04B7  2CB9               	goto	u1531
  3357     04B8  2CBA               	goto	u1530
  3358     04B9                     u1531:
  3359     04B9  2CC1               	goto	l2033
  3360     04BA                     u1530:
  3361     04BA                     l2029:
  3362     04BA  09F5               	comf	___awmod@dividend,f
  3363     04BB  09F6               	comf	___awmod@dividend+1,f
  3364     04BC  0AF5               	incf	___awmod@dividend,f
  3365     04BD  1903               	skipnz
  3366     04BE  0AF6               	incf	___awmod@dividend+1,f
  3367     04BF                     l2031:
  3368     04BF  01A1               	clrf	___awmod@sign
  3369     04C0  0AA1               	incf	___awmod@sign,f
  3370     04C1                     l2033:
  3371     04C1  1FF4               	btfss	___awmod@divisor+1,7
  3372     04C2  2CC4               	goto	u1541
  3373     04C3  2CC5               	goto	u1540
  3374     04C4                     u1541:
  3375     04C4  2CCA               	goto	l2037
  3376     04C5                     u1540:
  3377     04C5                     l2035:
  3378     04C5  09F3               	comf	___awmod@divisor,f
  3379     04C6  09F4               	comf	___awmod@divisor+1,f
  3380     04C7  0AF3               	incf	___awmod@divisor,f
  3381     04C8  1903               	skipnz
  3382     04C9  0AF4               	incf	___awmod@divisor+1,f
  3383     04CA                     l2037:
  3384     04CA  0873               	movf	___awmod@divisor,w
  3385     04CB  0474               	iorwf	___awmod@divisor+1,w
  3386     04CC  1903               	btfsc	3,2
  3387     04CD  2CCF               	goto	u1551
  3388     04CE  2CD0               	goto	u1550
  3389     04CF                     u1551:
  3390     04CF  2CFF               	goto	l2055
  3391     04D0                     u1550:
  3392     04D0                     l2039:
  3393     04D0  01A0               	clrf	___awmod@counter
  3394     04D1  0AA0               	incf	___awmod@counter,f
  3395     04D2  2CDE               	goto	l2045
  3396     04D3                     l2041:
  3397     04D3  3001               	movlw	1
  3398     04D4                     u1565:
  3399     04D4  1003               	clrc
  3400     04D5  0DF3               	rlf	___awmod@divisor,f
  3401     04D6  0DF4               	rlf	___awmod@divisor+1,f
  3402     04D7  3EFF               	addlw	-1
  3403     04D8  1D03               	skipz
  3404     04D9  2CD4               	goto	u1565
  3405     04DA                     l2043:
  3406     04DA  3001               	movlw	1
  3407     04DB  00FF               	movwf	btemp+1
  3408     04DC  087F               	movf	btemp+1,w
  3409     04DD  07A0               	addwf	___awmod@counter,f
  3410     04DE                     l2045:
  3411     04DE  1FF4               	btfss	___awmod@divisor+1,7
  3412     04DF  2CE1               	goto	u1571
  3413     04E0  2CE2               	goto	u1570
  3414     04E1                     u1571:
  3415     04E1  2CD3               	goto	l2041
  3416     04E2                     u1570:
  3417     04E2                     l2047:
  3418     04E2  0874               	movf	___awmod@divisor+1,w
  3419     04E3  0276               	subwf	___awmod@dividend+1,w
  3420     04E4  1D03               	skipz
  3421     04E5  2CE8               	goto	u1585
  3422     04E6  0873               	movf	___awmod@divisor,w
  3423     04E7  0275               	subwf	___awmod@dividend,w
  3424     04E8                     u1585:
  3425     04E8  1C03               	skipc
  3426     04E9  2CEB               	goto	u1581
  3427     04EA  2CEC               	goto	u1580
  3428     04EB                     u1581:
  3429     04EB  2CF2               	goto	l2051
  3430     04EC                     u1580:
  3431     04EC                     l2049:
  3432     04EC  0873               	movf	___awmod@divisor,w
  3433     04ED  02F5               	subwf	___awmod@dividend,f
  3434     04EE  0874               	movf	___awmod@divisor+1,w
  3435     04EF  1C03               	skipc
  3436     04F0  03F6               	decf	___awmod@dividend+1,f
  3437     04F1  02F6               	subwf	___awmod@dividend+1,f
  3438     04F2                     l2051:
  3439     04F2  3001               	movlw	1
  3440     04F3                     u1595:
  3441     04F3  1003               	clrc
  3442     04F4  0CF4               	rrf	___awmod@divisor+1,f
  3443     04F5  0CF3               	rrf	___awmod@divisor,f
  3444     04F6  3EFF               	addlw	-1
  3445     04F7  1D03               	skipz
  3446     04F8  2CF3               	goto	u1595
  3447     04F9                     l2053:
  3448     04F9  3001               	movlw	1
  3449     04FA  02A0               	subwf	___awmod@counter,f
  3450     04FB  1D03               	btfss	3,2
  3451     04FC  2CFE               	goto	u1601
  3452     04FD  2CFF               	goto	u1600
  3453     04FE                     u1601:
  3454     04FE  2CE2               	goto	l2047
  3455     04FF                     u1600:
  3456     04FF                     l2055:
  3457     04FF  0821               	movf	___awmod@sign,w
  3458     0500  1903               	btfsc	3,2
  3459     0501  2D03               	goto	u1611
  3460     0502  2D04               	goto	u1610
  3461     0503                     u1611:
  3462     0503  2D09               	goto	l2059
  3463     0504                     u1610:
  3464     0504                     l2057:
  3465     0504  09F5               	comf	___awmod@dividend,f
  3466     0505  09F6               	comf	___awmod@dividend+1,f
  3467     0506  0AF5               	incf	___awmod@dividend,f
  3468     0507  1903               	skipnz
  3469     0508  0AF6               	incf	___awmod@dividend+1,f
  3470     0509                     l2059:
  3471     0509  0876               	movf	___awmod@dividend+1,w
  3472     050A  00F4               	movwf	?___awmod+1
  3473     050B  0875               	movf	___awmod@dividend,w
  3474     050C  00F3               	movwf	?___awmod
  3475     050D                     l487:
  3476     050D  0008               	return
  3477     050E                     __end_of___awmod:
  3478                           
  3479                           	psect	text17
  3480     03E7                     __ptext17:	
  3481 ;; *************** function ___awdiv *****************
  3482 ;; Defined at:
  3483 ;;		line 5 in file "C:\Program Files\Microchip\xc8\v2.45\pic\sources\c99\common\awdiv.c"
  3484 ;; Parameters:    Size  Location     Type
  3485 ;;  divisor         2    3[COMMON] int 
  3486 ;;  dividend        2    5[COMMON] int 
  3487 ;; Auto vars:     Size  Location     Type
  3488 ;;  quotient        2    2[BANK0 ] int 
  3489 ;;  sign            1    1[BANK0 ] unsigned char 
  3490 ;;  counter         1    0[BANK0 ] unsigned char 
  3491 ;; Return value:  Size  Location     Type
  3492 ;;                  2    3[COMMON] int 
  3493 ;; Registers used:
  3494 ;;		wreg, status,2, status,0, btemp+1
  3495 ;; Tracked objects:
  3496 ;;		On entry : 0/0
  3497 ;;		On exit  : 0/0
  3498 ;;		Unchanged: 0/0
  3499 ;; Data sizes:     COMMON   BANK0   BANK1   BANK3   BANK2
  3500 ;;      Params:         4       0       0       0       0
  3501 ;;      Locals:         0       4       0       0       0
  3502 ;;      Temps:          0       0       0       0       0
  3503 ;;      Totals:         4       4       0       0       0
  3504 ;;Total ram usage:        8 bytes
  3505 ;; Hardware stack levels used: 1
  3506 ;; Hardware stack levels required when called: 1
  3507 ;; This function calls:
  3508 ;;		Nothing
  3509 ;; This function is called by:
  3510 ;;		_clock_screen
  3511 ;;		_set_time
  3512 ;; This function uses a non-reentrant model
  3513 ;;
  3514                           
  3515     03E7                     ___awdiv:	
  3516                           ;psect for function ___awdiv
  3517                           
  3518     03E7                     l1981:	
  3519                           ;incstack = 0
  3520                           ; Regs used in ___awdiv: [wreg+status,2+status,0+btemp+1]
  3521                           
  3522     03E7  1283               	bcf	3,5	;RP0=0, select bank0
  3523     03E8  1303               	bcf	3,6	;RP1=0, select bank0
  3524     03E9  01A1               	clrf	___awdiv@sign
  3525     03EA                     l1983:
  3526     03EA  1FF4               	btfss	___awdiv@divisor+1,7
  3527     03EB  2BED               	goto	u1431
  3528     03EC  2BEE               	goto	u1430
  3529     03ED                     u1431:
  3530     03ED  2BF5               	goto	l1989
  3531     03EE                     u1430:
  3532     03EE                     l1985:
  3533     03EE  09F3               	comf	___awdiv@divisor,f
  3534     03EF  09F4               	comf	___awdiv@divisor+1,f
  3535     03F0  0AF3               	incf	___awdiv@divisor,f
  3536     03F1  1903               	skipnz
  3537     03F2  0AF4               	incf	___awdiv@divisor+1,f
  3538     03F3                     l1987:
  3539     03F3  01A1               	clrf	___awdiv@sign
  3540     03F4  0AA1               	incf	___awdiv@sign,f
  3541     03F5                     l1989:
  3542     03F5  1FF6               	btfss	___awdiv@dividend+1,7
  3543     03F6  2BF8               	goto	u1441
  3544     03F7  2BF9               	goto	u1440
  3545     03F8                     u1441:
  3546     03F8  2C02               	goto	l1995
  3547     03F9                     u1440:
  3548     03F9                     l1991:
  3549     03F9  09F5               	comf	___awdiv@dividend,f
  3550     03FA  09F6               	comf	___awdiv@dividend+1,f
  3551     03FB  0AF5               	incf	___awdiv@dividend,f
  3552     03FC  1903               	skipnz
  3553     03FD  0AF6               	incf	___awdiv@dividend+1,f
  3554     03FE                     l1993:
  3555     03FE  3001               	movlw	1
  3556     03FF  00FF               	movwf	btemp+1
  3557     0400  087F               	movf	btemp+1,w
  3558     0401  06A1               	xorwf	___awdiv@sign,f
  3559     0402                     l1995:
  3560     0402  01A2               	clrf	___awdiv@quotient
  3561     0403  01A3               	clrf	___awdiv@quotient+1
  3562     0404                     l1997:
  3563     0404  0873               	movf	___awdiv@divisor,w
  3564     0405  0474               	iorwf	___awdiv@divisor+1,w
  3565     0406  1903               	btfsc	3,2
  3566     0407  2C09               	goto	u1451
  3567     0408  2C0A               	goto	u1450
  3568     0409                     u1451:
  3569     0409  2C41               	goto	l2017
  3570     040A                     u1450:
  3571     040A                     l1999:
  3572     040A  01A0               	clrf	___awdiv@counter
  3573     040B  0AA0               	incf	___awdiv@counter,f
  3574     040C  2C18               	goto	l2005
  3575     040D                     l2001:
  3576     040D  3001               	movlw	1
  3577     040E                     u1465:
  3578     040E  1003               	clrc
  3579     040F  0DF3               	rlf	___awdiv@divisor,f
  3580     0410  0DF4               	rlf	___awdiv@divisor+1,f
  3581     0411  3EFF               	addlw	-1
  3582     0412  1D03               	skipz
  3583     0413  2C0E               	goto	u1465
  3584     0414                     l2003:
  3585     0414  3001               	movlw	1
  3586     0415  00FF               	movwf	btemp+1
  3587     0416  087F               	movf	btemp+1,w
  3588     0417  07A0               	addwf	___awdiv@counter,f
  3589     0418                     l2005:
  3590     0418  1FF4               	btfss	___awdiv@divisor+1,7
  3591     0419  2C1B               	goto	u1471
  3592     041A  2C1C               	goto	u1470
  3593     041B                     u1471:
  3594     041B  2C0D               	goto	l2001
  3595     041C                     u1470:
  3596     041C                     l2007:
  3597     041C  3001               	movlw	1
  3598     041D                     u1485:
  3599     041D  1003               	clrc
  3600     041E  0DA2               	rlf	___awdiv@quotient,f
  3601     041F  0DA3               	rlf	___awdiv@quotient+1,f
  3602     0420  3EFF               	addlw	-1
  3603     0421  1D03               	skipz
  3604     0422  2C1D               	goto	u1485
  3605     0423  0874               	movf	___awdiv@divisor+1,w
  3606     0424  0276               	subwf	___awdiv@dividend+1,w
  3607     0425  1D03               	skipz
  3608     0426  2C29               	goto	u1495
  3609     0427  0873               	movf	___awdiv@divisor,w
  3610     0428  0275               	subwf	___awdiv@dividend,w
  3611     0429                     u1495:
  3612     0429  1C03               	skipc
  3613     042A  2C2C               	goto	u1491
  3614     042B  2C2D               	goto	u1490
  3615     042C                     u1491:
  3616     042C  2C34               	goto	l2013
  3617     042D                     u1490:
  3618     042D                     l2009:
  3619     042D  0873               	movf	___awdiv@divisor,w
  3620     042E  02F5               	subwf	___awdiv@dividend,f
  3621     042F  0874               	movf	___awdiv@divisor+1,w
  3622     0430  1C03               	skipc
  3623     0431  03F6               	decf	___awdiv@dividend+1,f
  3624     0432  02F6               	subwf	___awdiv@dividend+1,f
  3625     0433                     l2011:
  3626     0433  1422               	bsf	___awdiv@quotient,0
  3627     0434                     l2013:
  3628     0434  3001               	movlw	1
  3629     0435                     u1505:
  3630     0435  1003               	clrc
  3631     0436  0CF4               	rrf	___awdiv@divisor+1,f
  3632     0437  0CF3               	rrf	___awdiv@divisor,f
  3633     0438  3EFF               	addlw	-1
  3634     0439  1D03               	skipz
  3635     043A  2C35               	goto	u1505
  3636     043B                     l2015:
  3637     043B  3001               	movlw	1
  3638     043C  02A0               	subwf	___awdiv@counter,f
  3639     043D  1D03               	btfss	3,2
  3640     043E  2C40               	goto	u1511
  3641     043F  2C41               	goto	u1510
  3642     0440                     u1511:
  3643     0440  2C1C               	goto	l2007
  3644     0441                     u1510:
  3645     0441                     l2017:
  3646     0441  0821               	movf	___awdiv@sign,w
  3647     0442  1903               	btfsc	3,2
  3648     0443  2C45               	goto	u1521
  3649     0444  2C46               	goto	u1520
  3650     0445                     u1521:
  3651     0445  2C4B               	goto	l2021
  3652     0446                     u1520:
  3653     0446                     l2019:
  3654     0446  09A2               	comf	___awdiv@quotient,f
  3655     0447  09A3               	comf	___awdiv@quotient+1,f
  3656     0448  0AA2               	incf	___awdiv@quotient,f
  3657     0449  1903               	skipnz
  3658     044A  0AA3               	incf	___awdiv@quotient+1,f
  3659     044B                     l2021:
  3660     044B  0823               	movf	___awdiv@quotient+1,w
  3661     044C  00F4               	movwf	?___awdiv+1
  3662     044D  0822               	movf	___awdiv@quotient,w
  3663     044E  00F3               	movwf	?___awdiv
  3664     044F                     l474:
  3665     044F  0008               	return
  3666     0450                     __end_of___awdiv:
  3667                           
  3668                           	psect	text18
  3669     0595                     __ptext18:	
  3670 ;; *************** function _isr *****************
  3671 ;; Defined at:
  3672 ;;		line 5 in file "isr_1.c"
  3673 ;; Parameters:    Size  Location     Type
  3674 ;;		None
  3675 ;; Auto vars:     Size  Location     Type
  3676 ;;		None
  3677 ;; Return value:  Size  Location     Type
  3678 ;;                  1    wreg      void 
  3679 ;; Registers used:
  3680 ;;		wreg, status,2, status,0, btemp+1
  3681 ;; Tracked objects:
  3682 ;;		On entry : 0/0
  3683 ;;		On exit  : 0/0
  3684 ;;		Unchanged: 0/0
  3685 ;; Data sizes:     COMMON   BANK0   BANK1   BANK3   BANK2
  3686 ;;      Params:         0       0       0       0       0
  3687 ;;      Locals:         0       0       0       0       0
  3688 ;;      Temps:          3       0       0       0       0
  3689 ;;      Totals:         3       0       0       0       0
  3690 ;;Total ram usage:        3 bytes
  3691 ;; Hardware stack levels used: 1
  3692 ;; This function calls:
  3693 ;;		Nothing
  3694 ;; This function is called by:
  3695 ;;		Interrupt level 1
  3696 ;; This function uses a non-reentrant model
  3697 ;;
  3698                           
  3699     0595                     _isr:	
  3700                           ;psect for function _isr
  3701                           
  3702     0595                     i1l1853:
  3703                           
  3704                           ;isr_1.c: 7:     static unsigned int count = 0;;isr_1.c: 9:     if (TMR2IF == 1)
  3705     0595  1283               	bcf	3,5	;RP0=0, select bank0
  3706     0596  1303               	bcf	3,6	;RP1=0, select bank0
  3707     0597  1C8C               	btfss	12,1	;volatile
  3708     0598  2D9A               	goto	u135_21
  3709     0599  2D9B               	goto	u135_20
  3710     059A                     u135_21:
  3711     059A  2DC7               	goto	i1l235
  3712     059B                     u135_20:
  3713     059B                     i1l1855:
  3714                           
  3715                           ;isr_1.c: 10:     {;isr_1.c: 11:         if (++count == 1250)
  3716     059B  3001               	movlw	1
  3717     059C  07F8               	addwf	isr@count,f
  3718     059D  1803               	skipnc
  3719     059E  0AF9               	incf	isr@count+1,f
  3720     059F  3000               	movlw	0
  3721     05A0  07F9               	addwf	isr@count+1,f
  3722     05A1  30E2               	movlw	226
  3723     05A2  0678               	xorwf	isr@count,w
  3724     05A3  3004               	movlw	4
  3725     05A4  1903               	skipnz
  3726     05A5  0679               	xorwf	isr@count+1,w
  3727     05A6  1D03               	btfss	3,2
  3728     05A7  2DA9               	goto	u136_21
  3729     05A8  2DAA               	goto	u136_20
  3730     05A9                     u136_21:
  3731     05A9  2DC6               	goto	i1l1873
  3732     05AA                     u136_20:
  3733     05AA                     i1l1857:
  3734                           
  3735                           ;isr_1.c: 12:         {;isr_1.c: 13:             count = 0;
  3736     05AA  01F8               	clrf	isr@count
  3737     05AB  01F9               	clrf	isr@count+1
  3738     05AC                     i1l1859:
  3739                           
  3740                           ;isr_1.c: 14:             sec++;
  3741     05AC  3001               	movlw	1
  3742     05AD  00FF               	movwf	btemp+1
  3743     05AE  087F               	movf	btemp+1,w
  3744     05AF  07B1               	addwf	_sec,f
  3745     05B0                     i1l1861:
  3746                           
  3747                           ;isr_1.c: 16:             if (sec==60)
  3748     05B0  303C               	movlw	60
  3749     05B1  0631               	xorwf	_sec,w
  3750     05B2  1D03               	btfss	3,2
  3751     05B3  2DB5               	goto	u137_21
  3752     05B4  2DB6               	goto	u137_20
  3753     05B5                     u137_21:
  3754     05B5  2DBB               	goto	i1l1867
  3755     05B6                     u137_20:
  3756     05B6                     i1l1863:
  3757                           
  3758                           ;isr_1.c: 17:             {;isr_1.c: 18:                 min++;
  3759     05B6  3001               	movlw	1
  3760     05B7  00FF               	movwf	btemp+1
  3761     05B8  087F               	movf	btemp+1,w
  3762     05B9  07B0               	addwf	_min,f
  3763     05BA                     i1l1865:
  3764                           
  3765                           ;isr_1.c: 19:                 sec=0;
  3766     05BA  01B1               	clrf	_sec
  3767     05BB                     i1l1867:
  3768                           
  3769                           ;isr_1.c: 22:             if(min==60)
  3770     05BB  303C               	movlw	60
  3771     05BC  0630               	xorwf	_min,w
  3772     05BD  1D03               	btfss	3,2
  3773     05BE  2DC0               	goto	u138_21
  3774     05BF  2DC1               	goto	u138_20
  3775     05C0                     u138_21:
  3776     05C0  2DC6               	goto	i1l1873
  3777     05C1                     u138_20:
  3778     05C1                     i1l1869:
  3779                           
  3780                           ;isr_1.c: 23:             {;isr_1.c: 24:                 hour++;
  3781     05C1  3001               	movlw	1
  3782     05C2  00FF               	movwf	btemp+1
  3783     05C3  087F               	movf	btemp+1,w
  3784     05C4  07AF               	addwf	_hour,f
  3785     05C5                     i1l1871:
  3786                           
  3787                           ;isr_1.c: 25:                 min=0;
  3788     05C5  01B0               	clrf	_min
  3789     05C6                     i1l1873:
  3790                           
  3791                           ;isr_1.c: 31:         TMR2IF = 0;
  3792     05C6  108C               	bcf	12,1	;volatile
  3793     05C7                     i1l235:
  3794     05C7  0872               	movf	??_isr+2,w
  3795     05C8  00FF               	movwf	btemp+1
  3796     05C9  0871               	movf	??_isr+1,w
  3797     05CA  008A               	movwf	10
  3798     05CB  0E70               	swapf	??_isr,w
  3799     05CC  0083               	movwf	3
  3800     05CD  0EFE               	swapf	btemp,f
  3801     05CE  0E7E               	swapf	btemp,w
  3802     05CF  0009               	retfie
  3803     05D0                     __end_of_isr:
  3804     007E                     btemp	set	126	;btemp
  3805     007E                     wtemp0	set	126
  3806                           
  3807                           	psect	intentry
  3808     0004                     __pintentry:	
  3809                           ;incstack = 0
  3810                           ; Regs used in _isr: [wreg+status,2+status,0+btemp+1]
  3811                           
  3812     0004                     interrupt_function:
  3813     007E                     saved_w	set	btemp
  3814     0004  00FE               	movwf	btemp
  3815     0005  0E03               	swapf	3,w
  3816     0006  00F0               	movwf	??_isr
  3817     0007  080A               	movf	10,w
  3818     0008  00F1               	movwf	??_isr+1
  3819     0009  087F               	movf	btemp+1,w
  3820     000A  00F2               	movwf	??_isr+2
  3821     000B  120A  118A  2D95   	ljmp	_isr
  3822                           
  3823                           	psect	config
  3824                           
  3825                           ;Config register CONFIG @ 0x2007
  3826                           ;	Oscillator Selection bits
  3827                           ;	FOSC = 0x3, unprogrammed default
  3828                           ;	Watchdog Timer Enable bit
  3829                           ;	WDTE = OFF, WDT disabled
  3830                           ;	Power-up Timer Enable bit
  3831                           ;	PWRTE = 0x1, unprogrammed default
  3832                           ;	Brown-out Reset Enable bit
  3833                           ;	BOREN = 0x1, unprogrammed default
  3834                           ;	Low-Voltage (Single-Supply) In-Circuit Serial Programming Enable bit
  3835                           ;	LVP = 0x1, unprogrammed default
  3836                           ;	Data EEPROM Memory Code Protection bit
  3837                           ;	CPD = 0x1, unprogrammed default
  3838                           ;	Flash Program Memory Write Enable bits
  3839                           ;	WRT = 0x3, unprogrammed default
  3840                           ;	In-Circuit Debugger Mode bit
  3841                           ;	DEBUG = 0x1, unprogrammed default
  3842                           ;	Flash Program Memory Code Protection bit
  3843                           ;	CP = 0x1, unprogrammed default
  3844     2007                     	org	8199
  3845     2007  3FFB               	dw	16379

Data Sizes:
    Strings     55
    Constant    0
    Data        5
    BSS         9
    Persistent  0
    Stack       0

Auto Spaces:
    Space          Size  Autos    Used
    COMMON           14      8      11
    BANK0            80     11      22
    BANK1            80      0       0
    BANK3            96      0       0
    BANK2            96      0       0

Pointer List with Targets:

    clcd_print@str	PTR const unsigned char  size(1) Largest target is 17
		 -> STR_1(CODE[6]), STR_2(CODE[16]), STR_3(CODE[6]), STR_4(CODE[17]), 
		 -> STR_5(CODE[3]), STR_6(CODE[3]), STR_7(CODE[3]), STR_8(CODE[16]), 


Critical Paths under _main in COMMON

    _turn_on->_clcd_print
    _turn_on->_clcd_putch
    _set_time->_clcd_print
    _set_time->_clcd_putch
    _clear_screen->_clcd_write
    _read_matrix_keypad->_scan_keypad
    _init_display_controller->_clcd_write
    _clock_screen->_clcd_print
    _clock_screen->_clcd_putch
    _clcd_putch->___awdiv
    _clcd_putch->___awmod
    _clcd_putch->_clcd_write
    _clcd_print->_clcd_write

Critical Paths under _isr in COMMON

    None.

Critical Paths under _main in BANK0

    _main->_set_time
    _turn_on->_clcd_putch
    _set_time->_clcd_putch
    _init_clcd->_init_display_controller
    _clock_screen->_clcd_putch
    _clcd_putch->___awdiv

Critical Paths under _isr in BANK0

    None.

Critical Paths under _main in BANK1

    None.

Critical Paths under _isr in BANK1

    None.

Critical Paths under _main in BANK3

    None.

Critical Paths under _isr in BANK3

    None.

Critical Paths under _main in BANK2

    None.

Critical Paths under _isr in BANK2

    None.

Call Graph Tables:

 ---------------------------------------------------------------------------------
 (Depth) Function   	        Calls       Base Space   Used Autos Params    Refs
 ---------------------------------------------------------------------------------
 (0) _main                                                 1     1      0   26210
                                             10 BANK0      1     1      0
                       _clear_screen
                       _clock_screen
                        _init_config
                 _read_matrix_keypad
                           _set_time
                            _turn_on
 ---------------------------------------------------------------------------------
 (1) _turn_on                                              4     4      0    5330
                                              5 BANK0      4     4      0
                         _clcd_print
                         _clcd_putch
 ---------------------------------------------------------------------------------
 (1) _set_time                                             5     3      2   10035
                                              5 BANK0      5     3      2
                            ___awdiv
                            ___awmod
                             ___bmul
                         _clcd_print
                         _clcd_putch
                       _clear_screen
 ---------------------------------------------------------------------------------
 (2) _clear_screen                                         2     2      0    1173
                                              0 BANK0      2     2      0
                         _clcd_write
 ---------------------------------------------------------------------------------
 (2) ___bmul                                               3     2      1     320
                                              3 COMMON     3     2      1
 ---------------------------------------------------------------------------------
 (1) _read_matrix_keypad                                   2     2      0     295
                                              5 COMMON     2     2      0
                        _scan_keypad
 ---------------------------------------------------------------------------------
 (2) _scan_keypad                                          2     2      0     184
                                              3 COMMON     2     2      0
 ---------------------------------------------------------------------------------
 (1) _init_config                                          0     0      0    1173
                          _init_clcd
                 _init_matrix_keypad
                        _init_timer2
 ---------------------------------------------------------------------------------
 (2) _init_timer2                                          0     0      0       0
 ---------------------------------------------------------------------------------
 (2) _init_matrix_keypad                                   0     0      0       0
 ---------------------------------------------------------------------------------
 (2) _init_clcd                                            0     0      0    1173
            _init_display_controller
 ---------------------------------------------------------------------------------
 (3) _init_display_controller                              2     2      0    1173
                                              0 BANK0      2     2      0
                         _clcd_write
 ---------------------------------------------------------------------------------
 (1) _clock_screen                                         2     2      0    8170
                                              5 BANK0      2     2      0
                            ___awdiv
                            ___awmod
                         _clcd_print
                         _clcd_putch
 ---------------------------------------------------------------------------------
 (2) _clcd_putch                                           2     1      1    2855
                                              7 COMMON     1     1      0
                                              4 BANK0      1     0      1
                            ___awdiv (ARG)
                            ___awmod (ARG)
                         _clcd_write
 ---------------------------------------------------------------------------------
 (2) _clcd_print                                           2     1      1    2277
                                              7 COMMON     1     0      1
                                              0 BANK0      1     1      0
                         _clcd_write
 ---------------------------------------------------------------------------------
 (3) _clcd_write                                           4     3      1    1173
                                              3 COMMON     4     3      1
 ---------------------------------------------------------------------------------
 (2) ___awmod                                              6     2      4    1513
                                              3 COMMON     4     0      4
                                              0 BANK0      2     2      0
 ---------------------------------------------------------------------------------
 (2) ___awdiv                                              8     4      4    1525
                                              3 COMMON     4     0      4
                                              0 BANK0      4     4      0
 ---------------------------------------------------------------------------------
 Estimated maximum stack depth 3
 ---------------------------------------------------------------------------------
 (Depth) Function   	        Calls       Base Space   Used Autos Params    Refs
 ---------------------------------------------------------------------------------
 (5) _isr                                                  3     3      0       0
                                              0 COMMON     3     3      0
 ---------------------------------------------------------------------------------
 Estimated maximum stack depth 5
 ---------------------------------------------------------------------------------

 Call Graph Graphs:

 _main (ROOT)
   _clear_screen
     _clcd_write
   _clock_screen
     ___awdiv
     ___awmod
     _clcd_print
       _clcd_write
     _clcd_putch
       ___awdiv (ARG)
       ___awmod (ARG)
       _clcd_write (ARG)
   _init_config
     _init_clcd
       _init_display_controller
         _clcd_write
     _init_matrix_keypad
     _init_timer2
   _read_matrix_keypad
     _scan_keypad
   _set_time
     ___awdiv
     ___awmod
     ___bmul
     _clcd_print
     _clcd_putch
     _clear_screen
   _turn_on
     _clcd_print
     _clcd_putch

 _isr (ROOT)

 Address spaces:
Name               Size   Autos  Total    Cost      Usage
BANK3               60      0       0       9        0.0%
BITBANK3            60      0       0       8        0.0%
SFR3                 0      0       0       4        0.0%
BITSFR3              0      0       0       4        0.0%
BANK2               60      0       0      11        0.0%
BITBANK2            60      0       0      10        0.0%
SFR2                 0      0       0       5        0.0%
BITSFR2              0      0       0       5        0.0%
BANK1               50      0       0       7        0.0%
BITBANK1            50      0       0       6        0.0%
SFR1                 0      0       0       2        0.0%
BITSFR1              0      0       0       2        0.0%
BANK0               50      B      16       5       27.5%
BITBANK0            50      0       0       4        0.0%
SFR0                 0      0       0       1        0.0%
BITSFR0              0      0       0       1        0.0%
COMMON               E      8       B       1       78.6%
BITCOMMON            E      0       0       0        0.0%
CODE                 0      0       0       0        0.0%
DATA                 0      0      21      12        0.0%
ABS                  0      0      21       3        0.0%
NULL                 0      0       0       0        0.0%
STACK                0      0       0       2        0.0%
EEDATA             100      0       0       0        0.0%


Microchip Technology PIC Macro Assembler V2.45 build 20230818022343 
Symbol Table                                                                                   Tue Nov 07 21:59:15 2023

                              pc 0002                   ??_clock_screen 0025                   ___bmul@product 0074  
                 clcd_print@addr 0077                               l41 06A2                               l73 00C7  
                             l90 01D2                               l59 0375                               l91 01DA  
                             l93 01F6                               l96 0690                     ___awdiv@sign 0021  
                             fsr 0004               _init_matrix_keypad 06A3                              l103 04B2  
                            l130 067E                              l124 06CA                              l127 03E6  
                            l136 0633                              l216 06BF                              l162 06B2  
                            l170 0222                              l139 0605                              l181 0272  
                            l182 027A                              l174 0243                              l166 0214  
                            l191 02AF                              l183 0286                              l175 024B  
                            l167 021C                              l184 0280                              l176 0257  
                            l168 02B6                              l177 0251                              l169 0228  
                            l347 066B                              l188 02A1                              l189 02A9  
                            l199 0656                              l474 044F                              l487 050D  
                            _GIE 005F                              _RB0 0030                              _RB1 0031  
                            _RB2 0032                              _RD0 0040                              _RD1 0041  
                            _RD2 0042                              _RE1 0049                              _RD3 0043  
                            _RE2 004A                              _PR2 0092                              u800 024F  
                            u801 024E                              u810 0255                              u811 0254  
                            u820 0272                              u740 0214                              u900 065D  
                            u821 0271                              u741 0213                              u901 065C  
                            u830 0278                              u750 021A                              u910 066A  
                            u831 0277                              u751 0219                              u911 0669  
                            u840 027E                              u760 0220                              u841 027D  
                            u825 026E                              u761 021F                              u745 0210  
                            u850 0284                              u770 0226                              u851 0283  
                            u771 0225                              u860 02A1                              u780 0243  
                            u861 02A0                              u781 0242                              u870 02A7  
                            u790 0249                              u871 02A6                              u791 0248  
                            u880 02AD                              u881 02AC                              u865 029D  
                            u785 023F                              u890 02B3                              u891 02B2  
                            _min 0030                              _sec 0031                              _isr 0595  
                 clcd_putch@addr 0024                              fsr0 0004                   clcd_putch@data 0077  
                   ___awmod@sign 0021              ?_init_matrix_keypad 0070                             l2001 040D  
                           l2011 0433                             l2003 0414                             l2021 044B  
                           l2013 0434                             l2005 0418                             l2101 003F  
                           l2015 043B                             l2007 041C                             l2031 04BF  
                           l2111 005E                             l2103 0046                             l2009 042D  
                           l2017 0441                             l2041 04D3                             l2033 04C1  
                           l2025 04B3                             l1401 06AB                             l2121 007D  
                           l2105 004C                             l2113 0066                             l2019 0446  
                           l2051 04F2                             l2043 04DA                             l2035 04C5  
                           l2027 04B6                             l2211 02FF                             l2203 02B7  
                           l1403 06AC                             l1411 06B3                             l2131 009D  
                           l2123 0083                             l2115 006E                             l2107 004E  
                           l2053 04F9                             l2045 04DE                             l2037 04CA  
                           l2029 04BA                             l2213 031A                             l2205 02BF  
                           l1405 06AF                             l1413 06B7                             l2141 00C4  
                           l2133 00A9                             l2125 008F                             l2117 0074  
                           l2109 0056                             l2221 050E                             l2047 04E2  
                           l2039 04D0                             l2055 04FF                             l2215 0335  
                           l2207 02DA                             l1407 06B0                             l1415 06BB  
                           l2063 0691                             l1503 027E                             l2151 00DB  
                           l2135 00AC                             l2127 0091                             l2119 0079  
                           l2143 00C8                             l2231 052E                             l2223 0513  
                           l2057 0504                             l2049 04EC                             l2217 033F  
                           l2209 02F5                             l1409 06B1                             l1417 06BC  
                           l2065 06A0                             l1521 0294                             l1513 028A  
                           l1441 0201                             l1433 01F7                             l2153 00DC  
                           l2145 00CE                             l2161 00E9                             l2137 00B2  
                           l2129 0097                             l2081 0470                             l2233 0538  
                           l2225 051D                             l2059 0509                             l2219 035A  
                           l2067 06A1                             l1523 02A7                             l1451 0220  
                           l1443 0207                             l1435 01FD                             l2171 0105  
                           l2163 00EF                             l2155 00DF                             l2147 00D3  
                           l2139 00B8                             l2091 0481                             l2083 0476  
                           l2075 0453                             l2235 053F                             l2227 0522  
                           l1509 0284                             l1461 022C                             l1445 021A  
                           l2181 014C                             l2173 0106                             l2165 00F4  
                           l2157 00E5                             l2149 00D6                             l2093 048A  
                           l2085 047E                             l2077 045C                             l2069 0450  
                           l2229 0527                             l1535 02B3                             l1519 028E  
                           l1471 0249                             l1551 0663                             l1543 0658  
                           l2183 0167                             l2175 010E                             l2191 01C2  
                           l2167 00FA                             l2159 00E6                             l2095 0498  
                           l2079 046A                             l2239 0545                             l1529 02AD  
                           l1457 0226                             l1553 0665                             l1545 0659  
                           l2185 0182                             l2177 0127                             l2169 00FB  
                           l2097 049E                             l1539 02B5                             l1483 0255  
                           l1467 0230                             l1651 0640                             l1555 066A  
                           l1547 065D                             l2195 01CA                             l2187 018C  
                           l2179 0142                             l2099 04A4                             l1493 025F  
                           l1477 024F                             l1469 0236                             l1661 064C  
                           l1549 0661                             l2197 01E3                             l2189 01A7  
                           l2285 054A                             l1399 06A3                             l1495 0265  
                           l1487 025B                             l1671 0653                             l1647 0635  
                           l2287 01EB                             l1921 05DF                             l1497 0278  
                           l1673 0655                             l1657 0642                             l1649 063B  
                           l1931 05F9                             l1923 05E4                             l1915 05D1  
                           l1659 0647                             l1933 05FC                             l1925 05E7  
                           l1917 05DB                             l1941 039A                             l1669 064E  
                           l1927 05F3                             l1919 05DE                             l1951 03C0  
                           l1943 03A1                             l1935 0376                             l1929 05F4  
                           l1953 03C7                             l1945 03A8                             l1937 0381  
                           l1961 06C3                             l1971 0609                             l1955 03D8  
                           l1947 03AB                             l1939 0388                             l1963 06C4  
                           l1981 03E7                             l1973 0611                             l1957 03DF  
                           l1949 03B2                             l1965 06C5                             l1991 03F9  
                           l1983 03EA                             l1975 061F                             l1959 06C0  
                           l1967 067F                             l1993 03FE                             l1985 03EE  
                           l1977 0625                             l1969 0686                             l1995 0402  
                           l1987 03F3                             l1979 066D                             l1997 0404  
                           l1989 03F5                             l1999 040A                             ?_isr 0070  
                           STR_1 058F                             STR_2 057F                             STR_3 058F  
                           STR_4 055E                             STR_5 057C                             STR_6 057C  
                           STR_7 057C                             STR_8 056F                             u1110 0640  
                           u1111 063F                             u1120 0647                             u1121 0646  
                           u1130 064C                             u1131 064B                             u1140 0653  
                           u1141 0652                             u1404 05DB                             u1420 0633  
                           u1421 0632                             u1510 0441                             u1430 03EE  
                           u1511 0440                             u1431 03ED                             u1415 05EB  
                           u1520 0446                             u1440 03F9                             u1600 04FF  
                           u1521 0445                             u1505 0435                             u1441 03F8  
                           u1601 04FE                             u1450 040A                             u1610 0504  
                           u1530 04BA                             u1451 0409                             u1611 0503  
                           u1531 04B9                             u1540 04C5                             u1700 009D  
                           u1620 0476                             u1541 04C4                             u1701 009C  
                           u1621 0475                             u1470 041C                             u1550 04D0  
                           u1390 05D8                             u1710 00B2                             u1630 04A4  
                           u1471 041B                             u1551 04CF                             u1391 05D4  
                           u1711 00B1                             u1631 04A3                             u1800 010D  
                           u1720 00B8                             u1640 0046                             u1465 040E  
                           u1721 00B7                             u1641 0045                             u1490 042D  
                           u1570 04E2                             u1810 01C9                             u1730 00CE  
                           u1650 006E                             u1491 042C                             u1571 04E1  
                           u1811 01C8                             u1731 00CD                             u1651 006D  
                           u1580 04EC                             u1740 00D3                             u1660 0074  
                           u1485 041D                             u1581 04EB                             u1565 04D4  
                           u1741 00D2                             u1661 0073                             u1750 00DB  
                           u1670 0079                             u1495 0429                             u1751 00DA  
                           u1671 0078                             u1760 00E5                             u1680 0083  
                           u1585 04E8                             u1761 00E4                             u1681 0082  
                           u1770 00EF                             u1690 0097                             u1595 04F3  
                           u1907 03C4                             u1771 00EE                             u1691 0096  
                           u1827 0464                             u1780 0105                             u1917 03D4  
                           u1781 0104                             u1837 0492                             u1790 010C  
                           u1927 03E3                             u1791 010A                             u1847 04AC  
                           u1937 05E1                             u1857 068C                             u1947 05F6  
                           u1867 037C                             _PEIE 005E                             u1957 0600  
                           u1877 038E                             u1887 039E                             u1897 03B6  
                           _main 050E                             _hour 002F                             btemp 007E  
                           start 000E                ___bmul@multiplier 0075             ??_init_matrix_keypad 0073  
                 clcd_write@byte 0076                   clcd_write@mode 0073                            ??_isr 0070  
                          ?_main 0070                  __end_of___awdiv 0450                  __end_of___awmod 050E  
                ___awdiv@divisor 0073                            i1l235 05C7                     ?_init_config 0070  
                ___awdiv@counter 0020                            _PORTD 0008                            _TRISB 0086  
                          _TRISD 0088                     ?_init_timer2 0070             __end_of_clear_screen 0691  
                          _nRBPU 040F               _read_matrix_keypad 0634                            pclath 000A  
            ?_read_matrix_keypad 0070                            status 0003                            wtemp0 007E  
                   ?_scan_keypad 0070                  __end_of_turn_on 04B3                  __initialization 0011  
                   __end_of_main 0558             ??_read_matrix_keypad 0075                           ??_main 0078  
               ___awdiv@dividend 0075             __end_of_clock_screen 0376                           i1l1861 05B0  
                         i1l1853 0595                           i1l1871 05C5                           i1l1863 05B6  
                         i1l1855 059B                           i1l1865 05BA                           i1l1857 05AA  
                         i1l1873 05C6                           i1l1867 05BB                           i1l1859 05AC  
                         i1l1869 05C1                           u135_20 059B                           u135_21 059A  
                         u136_20 05AA                           u136_21 05A9                           u137_20 05B6  
                         u137_21 05B5                           u138_20 05C1                           u138_21 05C0  
                         _TMR2IE 0461                           _TMR2IF 0061                           _TMR2ON 0092  
                         _TRISE1 0449                           _TRISE2 044A                           ___bmul 0657  
        _init_display_controller 0376                        ??___awdiv 0077                        ??___awmod 0077  
               ___awdiv@quotient 0022                  ___awmod@divisor 0073                  ___awmod@counter 0020  
                   __pdataCOMMON 007A                 __end_of_set_time 01F7                           saved_w 007E  
                      ??_turn_on 0025          __end_of__initialization 0038              ___bmul@multiplicand 0073  
                 __pcstackCOMMON 0070                     __pidataBANK0 06CB                       __pbssBANK0 002B  
      ??_init_display_controller 0020                       _clcd_print 0606                       _clcd_putch 066C  
                     _clcd_write 05D0                       __pmaintext 050E                     _clear_screen 067F  
                        ?___bmul 0073                       __pintentry 0004                          _T2CKPS0 0090  
                        _T2CKPS1 0091                       __stringtab 0558                        ?_set_time 0025  
                        ___awdiv 03E7                          ___awmod 04B3                     _clock_screen 02B7  
                        __ptext1 0450                          __ptext2 003C                          __ptext3 067F  
                        __ptext4 0657                          __ptext5 0634                          __ptext6 01F7  
                        __ptext7 0691                          __ptext8 06B3                          __ptext9 06A3  
__end_of_init_display_controller 03E7                __end_of_init_clcd 06CB                 ___awmod@dividend 0075  
                 main@reset_flag 0032                          main@key 002A             end_of_initialization 0038  
                        _turn_on 0450                      set_time@key 0029                   _operation_flag 0034  
                    ?_clcd_print 0077                      ?_clcd_putch 0024                      ?_clcd_write 0073  
                     ??_set_time 0027                    clcd_print@str 0020                   __end_of___bmul 066C  
                  __pidataCOMMON 06CF              start_initialization 0011                     scan_keypad@i 0073  
         read_matrix_keypad@mode 0075           read_matrix_keypad@once 007A                      __end_of_isr 05D0  
                       ??___bmul 0074                      __pdataBANK0 0032                    ??_init_config 0077  
                  ??_init_timer2 0073                      __pbssCOMMON 0078                        ___latbits 0002  
                  __pcstackBANK0 0020                    ??_scan_keypad 0073                         ?___awdiv 0073  
                       ?___awmod 0073                        __pstrings 0558               set_time@reset_flag 0025  
                      _init_clcd 06C0              __end_of_init_config 06A3                         ?_turn_on 0070  
            __end_of_init_timer2 06C0         ?_init_display_controller 0070                interrupt_function 0004  
                   ??_clcd_print 0078                     ??_clcd_putch 0077       __end_of_init_matrix_keypad 06B3  
                   ??_clcd_write 0074              __end_of_scan_keypad 02B7                      __stringbase 055D  
             __end_of_clcd_print 0634               __end_of_clcd_putch 067F               __end_of_clcd_write 0606  
                     ?_init_clcd 0070            read_matrix_keypad@key 0076                set_time@blink_pos 002D  
                  set_time@blink 002C       __end_of_read_matrix_keypad 0657               __end_of__stringtab 055E  
              set_time@key_count 002E                      _init_config 0691                      _init_timer2 06B3  
                       __ptext10 06C0                         __ptext11 0376                         __ptext12 02B7  
                       __ptext13 066C                         __ptext14 0606                         __ptext15 05D0  
                       __ptext16 04B3                         __ptext17 03E7                         __ptext18 0595  
                    _scan_keypad 01F7                    ?_clear_screen 0070                         _set_time 003C  
                       isr@count 0078                     set_time@wait 002B                      ??_init_clcd 0077  
                       intlevel1 0000                        stringcode 0558                   ??_clear_screen 0020  
                  ?_clock_screen 0070                         stringdir 0558                         stringtab 0558  
                       turn_on@i 0028  
